
main.elf:     file format elf32-avr

Sections:
Idx Name          Size      VMA       LMA       File off  Algn
  0 .data         00000032  00800100  0000171e  000017b2  2**0
                  CONTENTS, ALLOC, LOAD, DATA
  1 .text         0000171e  00000000  00000000  00000094  2**1
                  CONTENTS, ALLOC, LOAD, READONLY, CODE
  2 .bss          000000d7  00800132  00800132  000017e4  2**0
                  ALLOC
  3 .debug_aranges 00000080  00000000  00000000  000017e4  2**0
                  CONTENTS, READONLY, DEBUGGING
  4 .debug_pubnames 0000091a  00000000  00000000  00001864  2**0
                  CONTENTS, READONLY, DEBUGGING
  5 .debug_info   00001e8a  00000000  00000000  0000217e  2**0
                  CONTENTS, READONLY, DEBUGGING
  6 .debug_abbrev 00000771  00000000  00000000  00004008  2**0
                  CONTENTS, READONLY, DEBUGGING
  7 .debug_line   00001d51  00000000  00000000  00004779  2**0
                  CONTENTS, READONLY, DEBUGGING
  8 .debug_frame  00000580  00000000  00000000  000064cc  2**2
                  CONTENTS, READONLY, DEBUGGING
  9 .debug_str    00000939  00000000  00000000  00006a4c  2**0
                  CONTENTS, READONLY, DEBUGGING
 10 .debug_loc    000015af  00000000  00000000  00007385  2**0
                  CONTENTS, READONLY, DEBUGGING
 11 .debug_ranges 000002d0  00000000  00000000  00008934  2**0
                  CONTENTS, READONLY, DEBUGGING

Disassembly of section .text:

00000000 <__vectors>:
       0:	0c 94 34 00 	jmp	0x68	; 0x68 <__ctors_end>
       4:	0c 94 51 00 	jmp	0xa2	; 0xa2 <__bad_interrupt>
       8:	0c 94 51 00 	jmp	0xa2	; 0xa2 <__bad_interrupt>
       c:	0c 94 51 00 	jmp	0xa2	; 0xa2 <__bad_interrupt>
      10:	0c 94 10 0b 	jmp	0x1620	; 0x1620 <__vector_4>
      14:	0c 94 51 00 	jmp	0xa2	; 0xa2 <__bad_interrupt>
      18:	0c 94 51 00 	jmp	0xa2	; 0xa2 <__bad_interrupt>
      1c:	0c 94 51 00 	jmp	0xa2	; 0xa2 <__bad_interrupt>
      20:	0c 94 51 00 	jmp	0xa2	; 0xa2 <__bad_interrupt>
      24:	0c 94 51 00 	jmp	0xa2	; 0xa2 <__bad_interrupt>
      28:	0c 94 51 00 	jmp	0xa2	; 0xa2 <__bad_interrupt>
      2c:	0c 94 51 00 	jmp	0xa2	; 0xa2 <__bad_interrupt>
      30:	0c 94 51 00 	jmp	0xa2	; 0xa2 <__bad_interrupt>
      34:	0c 94 51 00 	jmp	0xa2	; 0xa2 <__bad_interrupt>
      38:	0c 94 51 00 	jmp	0xa2	; 0xa2 <__bad_interrupt>
      3c:	0c 94 51 00 	jmp	0xa2	; 0xa2 <__bad_interrupt>
      40:	0c 94 4f 0b 	jmp	0x169e	; 0x169e <__vector_16>
      44:	0c 94 51 00 	jmp	0xa2	; 0xa2 <__bad_interrupt>
      48:	0c 94 51 00 	jmp	0xa2	; 0xa2 <__bad_interrupt>
      4c:	0c 94 51 00 	jmp	0xa2	; 0xa2 <__bad_interrupt>
      50:	0c 94 51 00 	jmp	0xa2	; 0xa2 <__bad_interrupt>
      54:	0c 94 51 00 	jmp	0xa2	; 0xa2 <__bad_interrupt>
      58:	0c 94 51 00 	jmp	0xa2	; 0xa2 <__bad_interrupt>
      5c:	0c 94 51 00 	jmp	0xa2	; 0xa2 <__bad_interrupt>
      60:	0c 94 51 00 	jmp	0xa2	; 0xa2 <__bad_interrupt>
      64:	0c 94 51 00 	jmp	0xa2	; 0xa2 <__bad_interrupt>

00000068 <__ctors_end>:
      68:	11 24       	eor	r1, r1
      6a:	1f be       	out	0x3f, r1	; 63
      6c:	cf ef       	ldi	r28, 0xFF	; 255
      6e:	d8 e0       	ldi	r29, 0x08	; 8
      70:	de bf       	out	0x3e, r29	; 62
      72:	cd bf       	out	0x3d, r28	; 61

00000074 <__do_copy_data>:
      74:	11 e0       	ldi	r17, 0x01	; 1
      76:	a0 e0       	ldi	r26, 0x00	; 0
      78:	b1 e0       	ldi	r27, 0x01	; 1
      7a:	ee e1       	ldi	r30, 0x1E	; 30
      7c:	f7 e1       	ldi	r31, 0x17	; 23
      7e:	02 c0       	rjmp	.+4      	; 0x84 <.do_copy_data_start>

00000080 <.do_copy_data_loop>:
      80:	05 90       	lpm	r0, Z+
      82:	0d 92       	st	X+, r0

00000084 <.do_copy_data_start>:
      84:	a2 33       	cpi	r26, 0x32	; 50
      86:	b1 07       	cpc	r27, r17
      88:	d9 f7       	brne	.-10     	; 0x80 <.do_copy_data_loop>

0000008a <__do_clear_bss>:
      8a:	12 e0       	ldi	r17, 0x02	; 2
      8c:	a2 e3       	ldi	r26, 0x32	; 50
      8e:	b1 e0       	ldi	r27, 0x01	; 1
      90:	01 c0       	rjmp	.+2      	; 0x94 <.do_clear_bss_start>

00000092 <.do_clear_bss_loop>:
      92:	1d 92       	st	X+, r1

00000094 <.do_clear_bss_start>:
      94:	a9 30       	cpi	r26, 0x09	; 9
      96:	b1 07       	cpc	r27, r17
      98:	e1 f7       	brne	.-8      	; 0x92 <.do_clear_bss_loop>
      9a:	0e 94 53 00 	call	0xa6	; 0xa6 <main>
      9e:	0c 94 8d 0b 	jmp	0x171a	; 0x171a <_exit>

000000a2 <__bad_interrupt>:
      a2:	0c 94 00 00 	jmp	0	; 0x0 <__vectors>

000000a6 <main>:
  0x00,0x10,0x20
};

uint8_t color_index=0, red_val=0, green_val=0, blue_val=0;

int main(void){
      a6:	1f 93       	push	r17
      a8:	cf 93       	push	r28
      aa:	df 93       	push	r29

  WS2812B_Init();
      ac:	0e 94 70 01 	call	0x2e0	; 0x2e0 <WS2812B_Init>
  RGB_Animation_Init();
      b0:	0e 94 80 07 	call	0xf00	; 0xf00 <RGB_Animation_Init>
  debug_init();
      b4:	0e 94 09 0b 	call	0x1612	; 0x1612 <debug_init>
  
  RGB_Clear_Buf_2D();
      b8:	0e 94 7b 01 	call	0x2f6	; 0x2f6 <RGB_Clear_Buf_2D>
  
  RGB_Set_Pixel(15,100,0,0);
      bc:	8f e0       	ldi	r24, 0x0F	; 15
      be:	64 e6       	ldi	r22, 0x64	; 100
      c0:	40 e0       	ldi	r20, 0x00	; 0
      c2:	20 e0       	ldi	r18, 0x00	; 0
      c4:	0e 94 86 01 	call	0x30c	; 0x30c <RGB_Set_Pixel>
  
  RGB_Push_Buffer();
      c8:	0e 94 a7 01 	call	0x34e	; 0x34e <RGB_Push_Buffer>
  while(1){
    
	red_val   = colors[(color_index*3)+0];
      cc:	13 e0       	ldi	r17, 0x03	; 3
    milliseconds can be achieved.
 */
void
_delay_loop_2(uint16_t __count)
{
	__asm__ volatile (
      ce:	cc e2       	ldi	r28, 0x2C	; 44
      d0:	d1 e0       	ldi	r29, 0x01	; 1
      d2:	e0 91 32 01 	lds	r30, 0x0132
      d6:	e1 9f       	mul	r30, r17
      d8:	f0 01       	movw	r30, r0
      da:	11 24       	eor	r1, r1
      dc:	e0 50       	subi	r30, 0x00	; 0
      de:	ff 4f       	sbci	r31, 0xFF	; 255
      e0:	80 81       	ld	r24, Z
      e2:	80 93 33 01 	sts	0x0133, r24
	green_val = colors[(color_index*3)+1];
      e6:	61 81       	ldd	r22, Z+1	; 0x01
      e8:	60 93 34 01 	sts	0x0134, r22
	blue_val  = colors[(color_index*3)+2];
      ec:	42 81       	ldd	r20, Z+2	; 0x02
      ee:	40 93 35 01 	sts	0x0135, r20
	
    RGB_Animation_Slide_Fill(red_val, green_val, blue_val);
      f2:	0e 94 48 07 	call	0xe90	; 0xe90 <RGB_Animation_Slide_Fill>
      f6:	80 e1       	ldi	r24, 0x10	; 16
      f8:	97 e2       	ldi	r25, 0x27	; 39
      fa:	fe 01       	movw	r30, r28
      fc:	31 97       	sbiw	r30, 0x01	; 1
      fe:	f1 f7       	brne	.-4      	; 0xfc <main+0x56>
		__ticks = (uint16_t) (__ms * 10.0);
		while(__ticks)
		{
			// wait 1/10 ms
			_delay_loop_2(((F_CPU) / 4e3) / 10);
			__ticks --;
     100:	01 97       	sbiw	r24, 0x01	; 1
		__ticks = 1;
	else if (__tmp > 65535)
	{
		//	__ticks = requested delay in 1/10 ms
		__ticks = (uint16_t) (__ms * 10.0);
		while(__ticks)
     102:	d9 f7       	brne	.-10     	; 0xfa <main+0x54>
	_delay_ms(1000);
	RGB_Animation_Slide_Unfill(red_val, green_val, blue_val);
     104:	80 91 33 01 	lds	r24, 0x0133
     108:	60 91 34 01 	lds	r22, 0x0134
     10c:	40 91 35 01 	lds	r20, 0x0135
     110:	0e 94 83 06 	call	0xd06	; 0xd06 <RGB_Animation_Slide_Unfill>
     114:	80 e1       	ldi	r24, 0x10	; 16
     116:	97 e2       	ldi	r25, 0x27	; 39
     118:	fe 01       	movw	r30, r28
     11a:	31 97       	sbiw	r30, 0x01	; 1
     11c:	f1 f7       	brne	.-4      	; 0x11a <main+0x74>
		{
			// wait 1/10 ms
			_delay_loop_2(((F_CPU) / 4e3) / 10);
			__ticks --;
     11e:	01 97       	sbiw	r24, 0x01	; 1
		__ticks = 1;
	else if (__tmp > 65535)
	{
		//	__ticks = requested delay in 1/10 ms
		__ticks = (uint16_t) (__ms * 10.0);
		while(__ticks)
     120:	d9 f7       	brne	.-10     	; 0x118 <main+0x72>
	_delay_ms(1000);
	
	color_index++;
     122:	80 91 32 01 	lds	r24, 0x0132
     126:	8f 5f       	subi	r24, 0xFF	; 255
     128:	80 93 32 01 	sts	0x0132, r24
	if(color_index>=TOTAL_COLOR_LOOP){
     12c:	85 30       	cpi	r24, 0x05	; 5
     12e:	88 f2       	brcs	.-94     	; 0xd2 <main+0x2c>
	  color_index=0;
     130:	10 92 32 01 	sts	0x0132, r1
     134:	ce cf       	rjmp	.-100    	; 0xd2 <main+0x2c>

00000136 <WS2812B_Gpio_Init>:
     136:	55 9a       	sbi	0x0a, 5	; 10
     138:	5d 98       	cbi	0x0b, 5	; 11
     13a:	08 95       	ret

0000013c <WS2812B_Send_Byte>:
     13c:	87 ff       	sbrs	r24, 7
     13e:	0b c0       	rjmp	.+22     	; 0x156 <WS2812B_Send_Byte+0x1a>
     140:	5d 9a       	sbi	0x0b, 5	; 11
     142:	00 00       	nop
     144:	00 00       	nop
     146:	00 00       	nop
     148:	00 00       	nop
     14a:	00 00       	nop
     14c:	00 00       	nop
     14e:	00 00       	nop
     150:	00 00       	nop
     152:	5d 98       	cbi	0x0b, 5	; 11
     154:	0a c0       	rjmp	.+20     	; 0x16a <WS2812B_Send_Byte+0x2e>
     156:	5d 9a       	sbi	0x0b, 5	; 11
     158:	00 00       	nop
     15a:	00 00       	nop
     15c:	00 00       	nop
     15e:	5d 98       	cbi	0x0b, 5	; 11
     160:	00 00       	nop
     162:	00 00       	nop
     164:	00 00       	nop
     166:	00 00       	nop
     168:	00 00       	nop
     16a:	86 ff       	sbrs	r24, 6
     16c:	0b c0       	rjmp	.+22     	; 0x184 <WS2812B_Send_Byte+0x48>
     16e:	5d 9a       	sbi	0x0b, 5	; 11
     170:	00 00       	nop
     172:	00 00       	nop
     174:	00 00       	nop
     176:	00 00       	nop
     178:	00 00       	nop
     17a:	00 00       	nop
     17c:	00 00       	nop
     17e:	00 00       	nop
     180:	5d 98       	cbi	0x0b, 5	; 11
     182:	0a c0       	rjmp	.+20     	; 0x198 <WS2812B_Send_Byte+0x5c>
     184:	5d 9a       	sbi	0x0b, 5	; 11
     186:	00 00       	nop
     188:	00 00       	nop
     18a:	00 00       	nop
     18c:	5d 98       	cbi	0x0b, 5	; 11
     18e:	00 00       	nop
     190:	00 00       	nop
     192:	00 00       	nop
     194:	00 00       	nop
     196:	00 00       	nop
     198:	85 ff       	sbrs	r24, 5
     19a:	0b c0       	rjmp	.+22     	; 0x1b2 <WS2812B_Send_Byte+0x76>
     19c:	5d 9a       	sbi	0x0b, 5	; 11
     19e:	00 00       	nop
     1a0:	00 00       	nop
     1a2:	00 00       	nop
     1a4:	00 00       	nop
     1a6:	00 00       	nop
     1a8:	00 00       	nop
     1aa:	00 00       	nop
     1ac:	00 00       	nop
     1ae:	5d 98       	cbi	0x0b, 5	; 11
     1b0:	0a c0       	rjmp	.+20     	; 0x1c6 <WS2812B_Send_Byte+0x8a>
     1b2:	5d 9a       	sbi	0x0b, 5	; 11
     1b4:	00 00       	nop
     1b6:	00 00       	nop
     1b8:	00 00       	nop
     1ba:	5d 98       	cbi	0x0b, 5	; 11
     1bc:	00 00       	nop
     1be:	00 00       	nop
     1c0:	00 00       	nop
     1c2:	00 00       	nop
     1c4:	00 00       	nop
     1c6:	84 ff       	sbrs	r24, 4
     1c8:	0b c0       	rjmp	.+22     	; 0x1e0 <WS2812B_Send_Byte+0xa4>
     1ca:	5d 9a       	sbi	0x0b, 5	; 11
     1cc:	00 00       	nop
     1ce:	00 00       	nop
     1d0:	00 00       	nop
     1d2:	00 00       	nop
     1d4:	00 00       	nop
     1d6:	00 00       	nop
     1d8:	00 00       	nop
     1da:	00 00       	nop
     1dc:	5d 98       	cbi	0x0b, 5	; 11
     1de:	0a c0       	rjmp	.+20     	; 0x1f4 <WS2812B_Send_Byte+0xb8>
     1e0:	5d 9a       	sbi	0x0b, 5	; 11
     1e2:	00 00       	nop
     1e4:	00 00       	nop
     1e6:	00 00       	nop
     1e8:	5d 98       	cbi	0x0b, 5	; 11
     1ea:	00 00       	nop
     1ec:	00 00       	nop
     1ee:	00 00       	nop
     1f0:	00 00       	nop
     1f2:	00 00       	nop
     1f4:	83 ff       	sbrs	r24, 3
     1f6:	0b c0       	rjmp	.+22     	; 0x20e <WS2812B_Send_Byte+0xd2>
     1f8:	5d 9a       	sbi	0x0b, 5	; 11
     1fa:	00 00       	nop
     1fc:	00 00       	nop
     1fe:	00 00       	nop
     200:	00 00       	nop
     202:	00 00       	nop
     204:	00 00       	nop
     206:	00 00       	nop
     208:	00 00       	nop
     20a:	5d 98       	cbi	0x0b, 5	; 11
     20c:	0a c0       	rjmp	.+20     	; 0x222 <WS2812B_Send_Byte+0xe6>
     20e:	5d 9a       	sbi	0x0b, 5	; 11
     210:	00 00       	nop
     212:	00 00       	nop
     214:	00 00       	nop
     216:	5d 98       	cbi	0x0b, 5	; 11
     218:	00 00       	nop
     21a:	00 00       	nop
     21c:	00 00       	nop
     21e:	00 00       	nop
     220:	00 00       	nop
     222:	82 ff       	sbrs	r24, 2
     224:	0b c0       	rjmp	.+22     	; 0x23c <WS2812B_Send_Byte+0x100>
     226:	5d 9a       	sbi	0x0b, 5	; 11
     228:	00 00       	nop
     22a:	00 00       	nop
     22c:	00 00       	nop
     22e:	00 00       	nop
     230:	00 00       	nop
     232:	00 00       	nop
     234:	00 00       	nop
     236:	00 00       	nop
     238:	5d 98       	cbi	0x0b, 5	; 11
     23a:	0a c0       	rjmp	.+20     	; 0x250 <WS2812B_Send_Byte+0x114>
     23c:	5d 9a       	sbi	0x0b, 5	; 11
     23e:	00 00       	nop
     240:	00 00       	nop
     242:	00 00       	nop
     244:	5d 98       	cbi	0x0b, 5	; 11
     246:	00 00       	nop
     248:	00 00       	nop
     24a:	00 00       	nop
     24c:	00 00       	nop
     24e:	00 00       	nop
     250:	81 ff       	sbrs	r24, 1
     252:	0b c0       	rjmp	.+22     	; 0x26a <WS2812B_Send_Byte+0x12e>
     254:	5d 9a       	sbi	0x0b, 5	; 11
     256:	00 00       	nop
     258:	00 00       	nop
     25a:	00 00       	nop
     25c:	00 00       	nop
     25e:	00 00       	nop
     260:	00 00       	nop
     262:	00 00       	nop
     264:	00 00       	nop
     266:	5d 98       	cbi	0x0b, 5	; 11
     268:	0a c0       	rjmp	.+20     	; 0x27e <WS2812B_Send_Byte+0x142>
     26a:	5d 9a       	sbi	0x0b, 5	; 11
     26c:	00 00       	nop
     26e:	00 00       	nop
     270:	00 00       	nop
     272:	5d 98       	cbi	0x0b, 5	; 11
     274:	00 00       	nop
     276:	00 00       	nop
     278:	00 00       	nop
     27a:	00 00       	nop
     27c:	00 00       	nop
     27e:	80 ff       	sbrs	r24, 0
     280:	0b c0       	rjmp	.+22     	; 0x298 <WS2812B_Send_Byte+0x15c>
     282:	5d 9a       	sbi	0x0b, 5	; 11
     284:	00 00       	nop
     286:	00 00       	nop
     288:	00 00       	nop
     28a:	00 00       	nop
     28c:	00 00       	nop
     28e:	00 00       	nop
     290:	00 00       	nop
     292:	00 00       	nop
     294:	5d 98       	cbi	0x0b, 5	; 11
     296:	08 95       	ret
     298:	5d 9a       	sbi	0x0b, 5	; 11
     29a:	00 00       	nop
     29c:	00 00       	nop
     29e:	00 00       	nop
     2a0:	5d 98       	cbi	0x0b, 5	; 11
     2a2:	00 00       	nop
     2a4:	00 00       	nop
     2a6:	00 00       	nop
     2a8:	00 00       	nop
     2aa:	00 00       	nop
     2ac:	08 95       	ret

000002ae <WS2812B_Send_Pixel>:
     2ae:	0f 93       	push	r16
     2b0:	1f 93       	push	r17
     2b2:	18 2f       	mov	r17, r24
     2b4:	86 2f       	mov	r24, r22
     2b6:	04 2f       	mov	r16, r20
     2b8:	0e 94 9e 00 	call	0x13c	; 0x13c <WS2812B_Send_Byte>
     2bc:	81 2f       	mov	r24, r17
     2be:	0e 94 9e 00 	call	0x13c	; 0x13c <WS2812B_Send_Byte>
     2c2:	80 2f       	mov	r24, r16
     2c4:	0e 94 9e 00 	call	0x13c	; 0x13c <WS2812B_Send_Byte>
     2c8:	1f 91       	pop	r17
     2ca:	0f 91       	pop	r16
     2cc:	08 95       	ret

000002ce <WS2812B_Pixel_Delay>:
     2ce:	80 e0       	ldi	r24, 0x00	; 0
     2d0:	90 e0       	ldi	r25, 0x00	; 0
     2d2:	00 00       	nop
     2d4:	01 96       	adiw	r24, 0x01	; 1
     2d6:	2c e9       	ldi	r18, 0x9C	; 156
     2d8:	80 34       	cpi	r24, 0x40	; 64
     2da:	92 07       	cpc	r25, r18
     2dc:	d1 f7       	brne	.-12     	; 0x2d2 <WS2812B_Pixel_Delay+0x4>
     2de:	08 95       	ret

000002e0 <WS2812B_Init>:
     2e0:	55 9a       	sbi	0x0a, 5	; 10
     2e2:	5d 98       	cbi	0x0b, 5	; 11
     2e4:	08 95       	ret

000002e6 <RGB_Animation_Clear_Pixel_Buf>:
     2e6:	e9 e4       	ldi	r30, 0x49	; 73
     2e8:	f1 e0       	ldi	r31, 0x01	; 1
     2ea:	11 92       	st	Z+, r1
     2ec:	81 e0       	ldi	r24, 0x01	; 1
     2ee:	e6 36       	cpi	r30, 0x66	; 102
     2f0:	f8 07       	cpc	r31, r24
     2f2:	d9 f7       	brne	.-10     	; 0x2ea <RGB_Animation_Clear_Pixel_Buf+0x4>
     2f4:	08 95       	ret

000002f6 <RGB_Clear_Buf_2D>:
     2f6:	e8 e6       	ldi	r30, 0x68	; 104
     2f8:	f1 e0       	ldi	r31, 0x01	; 1
     2fa:	10 82       	st	Z, r1
     2fc:	11 82       	std	Z+1, r1	; 0x01
     2fe:	12 82       	std	Z+2, r1	; 0x02
     300:	34 96       	adiw	r30, 0x04	; 4
     302:	81 e0       	ldi	r24, 0x01	; 1
     304:	ec 3d       	cpi	r30, 0xDC	; 220
     306:	f8 07       	cpc	r31, r24
     308:	c1 f7       	brne	.-16     	; 0x2fa <RGB_Clear_Buf_2D+0x4>
     30a:	08 95       	ret

0000030c <RGB_Set_Pixel>:
     30c:	90 e0       	ldi	r25, 0x00	; 0
     30e:	fc 01       	movw	r30, r24
     310:	ee 0f       	add	r30, r30
     312:	ff 1f       	adc	r31, r31
     314:	ee 0f       	add	r30, r30
     316:	ff 1f       	adc	r31, r31
     318:	a6 e6       	ldi	r26, 0x66	; 102
     31a:	b1 e0       	ldi	r27, 0x01	; 1
     31c:	ea 0f       	add	r30, r26
     31e:	fb 1f       	adc	r31, r27
     320:	62 83       	std	Z+2, r22	; 0x02
     322:	fc 01       	movw	r30, r24
     324:	ee 0f       	add	r30, r30
     326:	ff 1f       	adc	r31, r31
     328:	ee 0f       	add	r30, r30
     32a:	ff 1f       	adc	r31, r31
     32c:	ea 0f       	add	r30, r26
     32e:	fb 1f       	adc	r31, r27
     330:	43 83       	std	Z+3, r20	; 0x03
     332:	01 96       	adiw	r24, 0x01	; 1
     334:	88 0f       	add	r24, r24
     336:	99 1f       	adc	r25, r25
     338:	88 0f       	add	r24, r24
     33a:	99 1f       	adc	r25, r25
     33c:	a8 0f       	add	r26, r24
     33e:	b9 1f       	adc	r27, r25
     340:	2c 93       	st	X, r18
     342:	08 95       	ret

00000344 <RGB_Get_Mid_Point>:
     344:	10 92 67 01 	sts	0x0167, r1
     348:	8f e0       	ldi	r24, 0x0F	; 15
     34a:	90 e0       	ldi	r25, 0x00	; 0
     34c:	08 95       	ret

0000034e <RGB_Push_Buffer>:
     34e:	cf 93       	push	r28
     350:	df 93       	push	r29
     352:	c8 e6       	ldi	r28, 0x68	; 104
     354:	d1 e0       	ldi	r29, 0x01	; 1
     356:	88 81       	ld	r24, Y
     358:	69 81       	ldd	r22, Y+1	; 0x01
     35a:	4a 81       	ldd	r20, Y+2	; 0x02
     35c:	0e 94 57 01 	call	0x2ae	; 0x2ae <WS2812B_Send_Pixel>
     360:	24 96       	adiw	r28, 0x04	; 4
     362:	81 e0       	ldi	r24, 0x01	; 1
     364:	cc 3d       	cpi	r28, 0xDC	; 220
     366:	d8 07       	cpc	r29, r24
     368:	b1 f7       	brne	.-20     	; 0x356 <RGB_Push_Buffer+0x8>
     36a:	df 91       	pop	r29
     36c:	cf 91       	pop	r28
     36e:	08 95       	ret

00000370 <RGB_Inc_Brightness>:
     370:	af 92       	push	r10
     372:	bf 92       	push	r11
     374:	cf 92       	push	r12
     376:	df 92       	push	r13
     378:	ef 92       	push	r14
     37a:	ff 92       	push	r15
     37c:	0f 93       	push	r16
     37e:	1f 93       	push	r17
     380:	cf 93       	push	r28
     382:	df 93       	push	r29
     384:	06 2f       	mov	r16, r22
     386:	10 e0       	ldi	r17, 0x00	; 0
     388:	90 e0       	ldi	r25, 0x00	; 0
     38a:	88 0f       	add	r24, r24
     38c:	99 1f       	adc	r25, r25
     38e:	88 0f       	add	r24, r24
     390:	99 1f       	adc	r25, r25
     392:	28 e6       	ldi	r18, 0x68	; 104
     394:	c2 2e       	mov	r12, r18
     396:	21 e0       	ldi	r18, 0x01	; 1
     398:	d2 2e       	mov	r13, r18
     39a:	c8 0e       	add	r12, r24
     39c:	d9 1e       	adc	r13, r25
     39e:	a9 e6       	ldi	r26, 0x69	; 105
     3a0:	ea 2e       	mov	r14, r26
     3a2:	a1 e0       	ldi	r26, 0x01	; 1
     3a4:	fa 2e       	mov	r15, r26
     3a6:	e8 0e       	add	r14, r24
     3a8:	f9 1e       	adc	r15, r25
     3aa:	ec 01       	movw	r28, r24
     3ac:	c6 59       	subi	r28, 0x96	; 150
     3ae:	de 4f       	sbci	r29, 0xFE	; 254
     3b0:	e8 eb       	ldi	r30, 0xB8	; 184
     3b2:	ae 2e       	mov	r10, r30
     3b4:	eb e0       	ldi	r30, 0x0B	; 11
     3b6:	be 2e       	mov	r11, r30
     3b8:	0b c0       	rjmp	.+22     	; 0x3d0 <RGB_Inc_Brightness+0x60>
     3ba:	f6 01       	movw	r30, r12
     3bc:	10 83       	st	Z, r17
     3be:	f7 01       	movw	r30, r14
     3c0:	10 82       	st	Z, r1
     3c2:	18 82       	st	Y, r1
     3c4:	0e 94 a7 01 	call	0x34e	; 0x34e <RGB_Push_Buffer>
     3c8:	c5 01       	movw	r24, r10
     3ca:	01 97       	sbiw	r24, 0x01	; 1
     3cc:	f1 f7       	brne	.-4      	; 0x3ca <RGB_Inc_Brightness+0x5a>
     3ce:	1f 5f       	subi	r17, 0xFF	; 255
     3d0:	10 17       	cp	r17, r16
     3d2:	98 f3       	brcs	.-26     	; 0x3ba <RGB_Inc_Brightness+0x4a>
     3d4:	df 91       	pop	r29
     3d6:	cf 91       	pop	r28
     3d8:	1f 91       	pop	r17
     3da:	0f 91       	pop	r16
     3dc:	ff 90       	pop	r15
     3de:	ef 90       	pop	r14
     3e0:	df 90       	pop	r13
     3e2:	cf 90       	pop	r12
     3e4:	bf 90       	pop	r11
     3e6:	af 90       	pop	r10
     3e8:	08 95       	ret

000003ea <RGB_Animation_Brightness_Dec>:
     3ea:	df 92       	push	r13
     3ec:	ef 92       	push	r14
     3ee:	ff 92       	push	r15
     3f0:	0f 93       	push	r16
     3f2:	1f 93       	push	r17
     3f4:	cf 93       	push	r28
     3f6:	df 93       	push	r29
     3f8:	d8 2e       	mov	r13, r24
     3fa:	e6 2e       	mov	r14, r22
     3fc:	f4 2e       	mov	r15, r20
     3fe:	c0 e0       	ldi	r28, 0x00	; 0
     400:	d0 e0       	ldi	r29, 0x00	; 0
     402:	00 e3       	ldi	r16, 0x30	; 48
     404:	15 e7       	ldi	r17, 0x75	; 117
     406:	8d 2d       	mov	r24, r13
     408:	6e 2d       	mov	r22, r14
     40a:	4f 2d       	mov	r20, r15
     40c:	0e 94 57 01 	call	0x2ae	; 0x2ae <WS2812B_Send_Pixel>
     410:	c8 01       	movw	r24, r16
     412:	01 97       	sbiw	r24, 0x01	; 1
     414:	f1 f7       	brne	.-4      	; 0x412 <RGB_Animation_Brightness_Dec+0x28>
     416:	21 96       	adiw	r28, 0x01	; 1
     418:	cd 31       	cpi	r28, 0x1D	; 29
     41a:	d1 05       	cpc	r29, r1
     41c:	a1 f7       	brne	.-24     	; 0x406 <RGB_Animation_Brightness_Dec+0x1c>
     41e:	df 91       	pop	r29
     420:	cf 91       	pop	r28
     422:	1f 91       	pop	r17
     424:	0f 91       	pop	r16
     426:	ff 90       	pop	r15
     428:	ef 90       	pop	r14
     42a:	df 90       	pop	r13
     42c:	08 95       	ret

0000042e <RGB_Animation_Brightness_Inc>:
     42e:	cf 92       	push	r12
     430:	df 92       	push	r13
     432:	ff 92       	push	r15
     434:	0f 93       	push	r16
     436:	1f 93       	push	r17
     438:	cf 93       	push	r28
     43a:	df 93       	push	r29
     43c:	f8 2e       	mov	r15, r24
     43e:	06 2f       	mov	r16, r22
     440:	14 2f       	mov	r17, r20
     442:	80 93 44 01 	sts	0x0144, r24
     446:	86 17       	cp	r24, r22
     448:	10 f4       	brcc	.+4      	; 0x44e <RGB_Animation_Brightness_Inc+0x20>
     44a:	60 93 44 01 	sts	0x0144, r22
     44e:	80 91 44 01 	lds	r24, 0x0144
     452:	81 17       	cp	r24, r17
     454:	10 f4       	brcc	.+4      	; 0x45a <RGB_Animation_Brightness_Inc+0x2c>
     456:	10 93 44 01 	sts	0x0144, r17
     45a:	c0 e0       	ldi	r28, 0x00	; 0
     45c:	d0 e0       	ldi	r29, 0x00	; 0
     45e:	40 e3       	ldi	r20, 0x30	; 48
     460:	c4 2e       	mov	r12, r20
     462:	45 e7       	ldi	r20, 0x75	; 117
     464:	d4 2e       	mov	r13, r20
     466:	8f 2d       	mov	r24, r15
     468:	60 2f       	mov	r22, r16
     46a:	41 2f       	mov	r20, r17
     46c:	0e 94 57 01 	call	0x2ae	; 0x2ae <WS2812B_Send_Pixel>
     470:	c6 01       	movw	r24, r12
     472:	01 97       	sbiw	r24, 0x01	; 1
     474:	f1 f7       	brne	.-4      	; 0x472 <RGB_Animation_Brightness_Inc+0x44>
     476:	21 96       	adiw	r28, 0x01	; 1
     478:	cd 31       	cpi	r28, 0x1D	; 29
     47a:	d1 05       	cpc	r29, r1
     47c:	a1 f7       	brne	.-24     	; 0x466 <RGB_Animation_Brightness_Inc+0x38>
     47e:	df 91       	pop	r29
     480:	cf 91       	pop	r28
     482:	1f 91       	pop	r17
     484:	0f 91       	pop	r16
     486:	ff 90       	pop	r15
     488:	df 90       	pop	r13
     48a:	cf 90       	pop	r12
     48c:	08 95       	ret

0000048e <RGB_Animation_Slide>:
     48e:	8f 92       	push	r8
     490:	9f 92       	push	r9
     492:	af 92       	push	r10
     494:	bf 92       	push	r11
     496:	cf 92       	push	r12
     498:	df 92       	push	r13
     49a:	ef 92       	push	r14
     49c:	ff 92       	push	r15
     49e:	0f 93       	push	r16
     4a0:	1f 93       	push	r17
     4a2:	cf 93       	push	r28
     4a4:	df 93       	push	r29
     4a6:	80 91 3c 01 	lds	r24, 0x013C
     4aa:	90 91 3d 01 	lds	r25, 0x013D
     4ae:	00 97       	sbiw	r24, 0x00	; 0
     4b0:	d1 f4       	brne	.+52     	; 0x4e6 <RGB_Animation_Slide+0x58>
     4b2:	8f ef       	ldi	r24, 0xFF	; 255
     4b4:	90 e0       	ldi	r25, 0x00	; 0
     4b6:	90 93 3f 01 	sts	0x013F, r25
     4ba:	80 93 3e 01 	sts	0x013E, r24
     4be:	10 92 41 01 	sts	0x0141, r1
     4c2:	10 92 40 01 	sts	0x0140, r1
     4c6:	10 92 43 01 	sts	0x0143, r1
     4ca:	10 92 42 01 	sts	0x0142, r1
     4ce:	00 e0       	ldi	r16, 0x00	; 0
     4d0:	10 e0       	ldi	r17, 0x00	; 0
     4d2:	ee 24       	eor	r14, r14
     4d4:	ff 24       	eor	r15, r15
     4d6:	6d e1       	ldi	r22, 0x1D	; 29
     4d8:	86 2e       	mov	r8, r22
     4da:	91 2c       	mov	r9, r1
     4dc:	58 eb       	ldi	r21, 0xB8	; 184
     4de:	a5 2e       	mov	r10, r21
     4e0:	5b e0       	ldi	r21, 0x0B	; 11
     4e2:	b5 2e       	mov	r11, r21
     4e4:	37 c0       	rjmp	.+110    	; 0x554 <RGB_Animation_Slide+0xc6>
     4e6:	81 30       	cpi	r24, 0x01	; 1
     4e8:	91 05       	cpc	r25, r1
     4ea:	39 f4       	brne	.+14     	; 0x4fa <RGB_Animation_Slide+0x6c>
     4ec:	8f ef       	ldi	r24, 0xFF	; 255
     4ee:	90 e0       	ldi	r25, 0x00	; 0
     4f0:	90 93 3f 01 	sts	0x013F, r25
     4f4:	80 93 3e 01 	sts	0x013E, r24
     4f8:	09 c0       	rjmp	.+18     	; 0x50c <RGB_Animation_Slide+0x7e>
     4fa:	82 30       	cpi	r24, 0x02	; 2
     4fc:	91 05       	cpc	r25, r1
     4fe:	59 f4       	brne	.+22     	; 0x516 <RGB_Animation_Slide+0x88>
     500:	10 92 3f 01 	sts	0x013F, r1
     504:	10 92 3e 01 	sts	0x013E, r1
     508:	8f ef       	ldi	r24, 0xFF	; 255
     50a:	90 e0       	ldi	r25, 0x00	; 0
     50c:	90 93 41 01 	sts	0x0141, r25
     510:	80 93 40 01 	sts	0x0140, r24
     514:	d8 cf       	rjmp	.-80     	; 0x4c6 <RGB_Animation_Slide+0x38>
     516:	83 30       	cpi	r24, 0x03	; 3
     518:	91 05       	cpc	r25, r1
     51a:	59 f4       	brne	.+22     	; 0x532 <RGB_Animation_Slide+0xa4>
     51c:	10 92 3f 01 	sts	0x013F, r1
     520:	10 92 3e 01 	sts	0x013E, r1
     524:	8f ef       	ldi	r24, 0xFF	; 255
     526:	90 e0       	ldi	r25, 0x00	; 0
     528:	90 93 41 01 	sts	0x0141, r25
     52c:	80 93 40 01 	sts	0x0140, r24
     530:	0c c0       	rjmp	.+24     	; 0x54a <RGB_Animation_Slide+0xbc>
     532:	04 97       	sbiw	r24, 0x04	; 4
     534:	61 f6       	brne	.-104    	; 0x4ce <RGB_Animation_Slide+0x40>
     536:	10 92 3f 01 	sts	0x013F, r1
     53a:	10 92 3e 01 	sts	0x013E, r1
     53e:	10 92 41 01 	sts	0x0141, r1
     542:	10 92 40 01 	sts	0x0140, r1
     546:	8f ef       	ldi	r24, 0xFF	; 255
     548:	90 e0       	ldi	r25, 0x00	; 0
     54a:	90 93 43 01 	sts	0x0143, r25
     54e:	80 93 42 01 	sts	0x0142, r24
     552:	bd cf       	rjmp	.-134    	; 0x4ce <RGB_Animation_Slide+0x40>
     554:	64 01       	movw	r12, r8
     556:	c0 1a       	sub	r12, r16
     558:	d1 0a       	sbc	r13, r17
     55a:	c0 e0       	ldi	r28, 0x00	; 0
     55c:	d0 e0       	ldi	r29, 0x00	; 0
     55e:	06 c0       	rjmp	.+12     	; 0x56c <RGB_Animation_Slide+0xde>
     560:	80 e0       	ldi	r24, 0x00	; 0
     562:	60 e0       	ldi	r22, 0x00	; 0
     564:	40 e0       	ldi	r20, 0x00	; 0
     566:	0e 94 57 01 	call	0x2ae	; 0x2ae <WS2812B_Send_Pixel>
     56a:	21 96       	adiw	r28, 0x01	; 1
     56c:	c0 17       	cp	r28, r16
     56e:	d1 07       	cpc	r29, r17
     570:	b8 f3       	brcs	.-18     	; 0x560 <RGB_Animation_Slide+0xd2>
     572:	80 91 3e 01 	lds	r24, 0x013E
     576:	60 91 40 01 	lds	r22, 0x0140
     57a:	40 91 42 01 	lds	r20, 0x0142
     57e:	0e 94 57 01 	call	0x2ae	; 0x2ae <WS2812B_Send_Pixel>
     582:	80 91 3e 01 	lds	r24, 0x013E
     586:	60 91 40 01 	lds	r22, 0x0140
     58a:	40 91 42 01 	lds	r20, 0x0142
     58e:	0e 94 57 01 	call	0x2ae	; 0x2ae <WS2812B_Send_Pixel>
     592:	80 91 3e 01 	lds	r24, 0x013E
     596:	60 91 40 01 	lds	r22, 0x0140
     59a:	40 91 42 01 	lds	r20, 0x0142
     59e:	0e 94 57 01 	call	0x2ae	; 0x2ae <WS2812B_Send_Pixel>
     5a2:	c0 e0       	ldi	r28, 0x00	; 0
     5a4:	d0 e0       	ldi	r29, 0x00	; 0
     5a6:	06 c0       	rjmp	.+12     	; 0x5b4 <RGB_Animation_Slide+0x126>
     5a8:	80 e0       	ldi	r24, 0x00	; 0
     5aa:	60 e0       	ldi	r22, 0x00	; 0
     5ac:	40 e0       	ldi	r20, 0x00	; 0
     5ae:	0e 94 57 01 	call	0x2ae	; 0x2ae <WS2812B_Send_Pixel>
     5b2:	21 96       	adiw	r28, 0x01	; 1
     5b4:	cc 15       	cp	r28, r12
     5b6:	dd 05       	cpc	r29, r13
     5b8:	b8 f3       	brcs	.-18     	; 0x5a8 <RGB_Animation_Slide+0x11a>
     5ba:	0f 5f       	subi	r16, 0xFF	; 255
     5bc:	1f 4f       	sbci	r17, 0xFF	; 255
     5be:	0d 31       	cpi	r16, 0x1D	; 29
     5c0:	11 05       	cpc	r17, r1
     5c2:	10 f0       	brcs	.+4      	; 0x5c8 <RGB_Animation_Slide+0x13a>
     5c4:	00 e0       	ldi	r16, 0x00	; 0
     5c6:	10 e0       	ldi	r17, 0x00	; 0
     5c8:	c5 01       	movw	r24, r10
     5ca:	01 97       	sbiw	r24, 0x01	; 1
     5cc:	f1 f7       	brne	.-4      	; 0x5ca <RGB_Animation_Slide+0x13c>
     5ce:	08 94       	sec
     5d0:	e1 1c       	adc	r14, r1
     5d2:	f1 1c       	adc	r15, r1
     5d4:	8d e1       	ldi	r24, 0x1D	; 29
     5d6:	e8 16       	cp	r14, r24
     5d8:	f1 04       	cpc	r15, r1
     5da:	09 f0       	breq	.+2      	; 0x5de <RGB_Animation_Slide+0x150>
     5dc:	bb cf       	rjmp	.-138    	; 0x554 <RGB_Animation_Slide+0xc6>
     5de:	80 91 3c 01 	lds	r24, 0x013C
     5e2:	90 91 3d 01 	lds	r25, 0x013D
     5e6:	01 96       	adiw	r24, 0x01	; 1
     5e8:	90 93 3d 01 	sts	0x013D, r25
     5ec:	80 93 3c 01 	sts	0x013C, r24
     5f0:	05 97       	sbiw	r24, 0x05	; 5
     5f2:	20 f0       	brcs	.+8      	; 0x5fc <RGB_Animation_Slide+0x16e>
     5f4:	10 92 3d 01 	sts	0x013D, r1
     5f8:	10 92 3c 01 	sts	0x013C, r1
     5fc:	df 91       	pop	r29
     5fe:	cf 91       	pop	r28
     600:	1f 91       	pop	r17
     602:	0f 91       	pop	r16
     604:	ff 90       	pop	r15
     606:	ef 90       	pop	r14
     608:	df 90       	pop	r13
     60a:	cf 90       	pop	r12
     60c:	bf 90       	pop	r11
     60e:	af 90       	pop	r10
     610:	9f 90       	pop	r9
     612:	8f 90       	pop	r8
     614:	08 95       	ret

00000616 <RGB_Animation_Rotate_All_Color>:
     616:	cf 93       	push	r28
     618:	df 93       	push	r29
     61a:	c0 e0       	ldi	r28, 0x00	; 0
     61c:	d0 e0       	ldi	r29, 0x00	; 0
     61e:	80 91 36 01 	lds	r24, 0x0136
     622:	60 91 37 01 	lds	r22, 0x0137
     626:	40 91 38 01 	lds	r20, 0x0138
     62a:	0e 94 57 01 	call	0x2ae	; 0x2ae <WS2812B_Send_Pixel>
     62e:	21 96       	adiw	r28, 0x01	; 1
     630:	cd 31       	cpi	r28, 0x1D	; 29
     632:	d1 05       	cpc	r29, r1
     634:	a1 f7       	brne	.-24     	; 0x61e <RGB_Animation_Rotate_All_Color+0x8>
     636:	80 91 39 01 	lds	r24, 0x0139
     63a:	88 23       	and	r24, r24
     63c:	31 f4       	brne	.+12     	; 0x64a <RGB_Animation_Rotate_All_Color+0x34>
     63e:	80 91 36 01 	lds	r24, 0x0136
     642:	8f 3f       	cpi	r24, 0xFF	; 255
     644:	59 f0       	breq	.+22     	; 0x65c <RGB_Animation_Rotate_All_Color+0x46>
     646:	8f 5f       	subi	r24, 0xFF	; 255
     648:	07 c0       	rjmp	.+14     	; 0x658 <RGB_Animation_Rotate_All_Color+0x42>
     64a:	81 30       	cpi	r24, 0x01	; 1
     64c:	39 f4       	brne	.+14     	; 0x65c <RGB_Animation_Rotate_All_Color+0x46>
     64e:	80 91 36 01 	lds	r24, 0x0136
     652:	88 23       	and	r24, r24
     654:	19 f0       	breq	.+6      	; 0x65c <RGB_Animation_Rotate_All_Color+0x46>
     656:	81 50       	subi	r24, 0x01	; 1
     658:	80 93 36 01 	sts	0x0136, r24
     65c:	80 91 3a 01 	lds	r24, 0x013A
     660:	88 23       	and	r24, r24
     662:	31 f4       	brne	.+12     	; 0x670 <RGB_Animation_Rotate_All_Color+0x5a>
     664:	80 91 37 01 	lds	r24, 0x0137
     668:	8f 3f       	cpi	r24, 0xFF	; 255
     66a:	59 f0       	breq	.+22     	; 0x682 <RGB_Animation_Rotate_All_Color+0x6c>
     66c:	8f 5f       	subi	r24, 0xFF	; 255
     66e:	07 c0       	rjmp	.+14     	; 0x67e <RGB_Animation_Rotate_All_Color+0x68>
     670:	81 30       	cpi	r24, 0x01	; 1
     672:	39 f4       	brne	.+14     	; 0x682 <RGB_Animation_Rotate_All_Color+0x6c>
     674:	80 91 37 01 	lds	r24, 0x0137
     678:	88 23       	and	r24, r24
     67a:	19 f0       	breq	.+6      	; 0x682 <RGB_Animation_Rotate_All_Color+0x6c>
     67c:	81 50       	subi	r24, 0x01	; 1
     67e:	80 93 37 01 	sts	0x0137, r24
     682:	80 91 3b 01 	lds	r24, 0x013B
     686:	88 23       	and	r24, r24
     688:	31 f4       	brne	.+12     	; 0x696 <RGB_Animation_Rotate_All_Color+0x80>
     68a:	80 91 38 01 	lds	r24, 0x0138
     68e:	8f 3f       	cpi	r24, 0xFF	; 255
     690:	59 f0       	breq	.+22     	; 0x6a8 <RGB_Animation_Rotate_All_Color+0x92>
     692:	8f 5f       	subi	r24, 0xFF	; 255
     694:	07 c0       	rjmp	.+14     	; 0x6a4 <RGB_Animation_Rotate_All_Color+0x8e>
     696:	81 30       	cpi	r24, 0x01	; 1
     698:	39 f4       	brne	.+14     	; 0x6a8 <RGB_Animation_Rotate_All_Color+0x92>
     69a:	80 91 38 01 	lds	r24, 0x0138
     69e:	88 23       	and	r24, r24
     6a0:	19 f0       	breq	.+6      	; 0x6a8 <RGB_Animation_Rotate_All_Color+0x92>
     6a2:	81 50       	subi	r24, 0x01	; 1
     6a4:	80 93 38 01 	sts	0x0138, r24
     6a8:	80 91 36 01 	lds	r24, 0x0136
     6ac:	8f 3f       	cpi	r24, 0xFF	; 255
     6ae:	d9 f4       	brne	.+54     	; 0x6e6 <RGB_Animation_Rotate_All_Color+0xd0>
     6b0:	80 91 37 01 	lds	r24, 0x0137
     6b4:	88 23       	and	r24, r24
     6b6:	51 f4       	brne	.+20     	; 0x6cc <RGB_Animation_Rotate_All_Color+0xb6>
     6b8:	80 91 38 01 	lds	r24, 0x0138
     6bc:	88 23       	and	r24, r24
     6be:	81 f5       	brne	.+96     	; 0x720 <RGB_Animation_Rotate_All_Color+0x10a>
     6c0:	82 e0       	ldi	r24, 0x02	; 2
     6c2:	80 93 39 01 	sts	0x0139, r24
     6c6:	10 92 3a 01 	sts	0x013A, r1
     6ca:	38 c0       	rjmp	.+112    	; 0x73c <RGB_Animation_Rotate_All_Color+0x126>
     6cc:	8f 3f       	cpi	r24, 0xFF	; 255
     6ce:	41 f5       	brne	.+80     	; 0x720 <RGB_Animation_Rotate_All_Color+0x10a>
     6d0:	80 91 38 01 	lds	r24, 0x0138
     6d4:	88 23       	and	r24, r24
     6d6:	21 f5       	brne	.+72     	; 0x720 <RGB_Animation_Rotate_All_Color+0x10a>
     6d8:	81 e0       	ldi	r24, 0x01	; 1
     6da:	80 93 39 01 	sts	0x0139, r24
     6de:	82 e0       	ldi	r24, 0x02	; 2
     6e0:	80 93 3a 01 	sts	0x013A, r24
     6e4:	2b c0       	rjmp	.+86     	; 0x73c <RGB_Animation_Rotate_All_Color+0x126>
     6e6:	88 23       	and	r24, r24
     6e8:	c9 f4       	brne	.+50     	; 0x71c <RGB_Animation_Rotate_All_Color+0x106>
     6ea:	80 91 37 01 	lds	r24, 0x0137
     6ee:	8f 3f       	cpi	r24, 0xFF	; 255
     6f0:	39 f5       	brne	.+78     	; 0x740 <RGB_Animation_Rotate_All_Color+0x12a>
     6f2:	80 91 38 01 	lds	r24, 0x0138
     6f6:	88 23       	and	r24, r24
     6f8:	41 f4       	brne	.+16     	; 0x70a <RGB_Animation_Rotate_All_Color+0xf4>
     6fa:	82 e0       	ldi	r24, 0x02	; 2
     6fc:	80 93 39 01 	sts	0x0139, r24
     700:	80 93 3a 01 	sts	0x013A, r24
     704:	10 92 3b 01 	sts	0x013B, r1
     708:	1b c0       	rjmp	.+54     	; 0x740 <RGB_Animation_Rotate_All_Color+0x12a>
     70a:	8f 3f       	cpi	r24, 0xFF	; 255
     70c:	c9 f4       	brne	.+50     	; 0x740 <RGB_Animation_Rotate_All_Color+0x12a>
     70e:	10 92 39 01 	sts	0x0139, r1
     712:	81 e0       	ldi	r24, 0x01	; 1
     714:	80 93 3a 01 	sts	0x013A, r24
     718:	82 e0       	ldi	r24, 0x02	; 2
     71a:	10 c0       	rjmp	.+32     	; 0x73c <RGB_Animation_Rotate_All_Color+0x126>
     71c:	8f 3f       	cpi	r24, 0xFF	; 255
     71e:	81 f4       	brne	.+32     	; 0x740 <RGB_Animation_Rotate_All_Color+0x12a>
     720:	80 91 37 01 	lds	r24, 0x0137
     724:	88 23       	and	r24, r24
     726:	61 f4       	brne	.+24     	; 0x740 <RGB_Animation_Rotate_All_Color+0x12a>
     728:	80 91 38 01 	lds	r24, 0x0138
     72c:	8f 3f       	cpi	r24, 0xFF	; 255
     72e:	41 f4       	brne	.+16     	; 0x740 <RGB_Animation_Rotate_All_Color+0x12a>
     730:	82 e0       	ldi	r24, 0x02	; 2
     732:	80 93 39 01 	sts	0x0139, r24
     736:	80 93 3a 01 	sts	0x013A, r24
     73a:	81 e0       	ldi	r24, 0x01	; 1
     73c:	80 93 3b 01 	sts	0x013B, r24
     740:	df 91       	pop	r29
     742:	cf 91       	pop	r28
     744:	08 95       	ret

00000746 <RGB_Brightness_Inc_Mid_Act>:
     746:	2f 92       	push	r2
     748:	3f 92       	push	r3
     74a:	4f 92       	push	r4
     74c:	5f 92       	push	r5
     74e:	6f 92       	push	r6
     750:	7f 92       	push	r7
     752:	8f 92       	push	r8
     754:	9f 92       	push	r9
     756:	af 92       	push	r10
     758:	bf 92       	push	r11
     75a:	df 92       	push	r13
     75c:	ef 92       	push	r14
     75e:	ff 92       	push	r15
     760:	0f 93       	push	r16
     762:	1f 93       	push	r17
     764:	df 93       	push	r29
     766:	cf 93       	push	r28
     768:	00 d0       	rcall	.+0      	; 0x76a <RGB_Brightness_Inc_Mid_Act+0x24>
     76a:	00 d0       	rcall	.+0      	; 0x76c <RGB_Brightness_Inc_Mid_Act+0x26>
     76c:	cd b7       	in	r28, 0x3d	; 61
     76e:	de b7       	in	r29, 0x3e	; 62
     770:	d8 2e       	mov	r13, r24
     772:	e6 2e       	mov	r14, r22
     774:	f4 2e       	mov	r15, r20
     776:	29 01       	movw	r4, r18
     778:	80 93 44 01 	sts	0x0144, r24
     77c:	86 17       	cp	r24, r22
     77e:	10 f4       	brcc	.+4      	; 0x784 <RGB_Brightness_Inc_Mid_Act+0x3e>
     780:	60 93 44 01 	sts	0x0144, r22
     784:	80 91 44 01 	lds	r24, 0x0144
     788:	8f 15       	cp	r24, r15
     78a:	10 f4       	brcc	.+4      	; 0x790 <RGB_Brightness_Inc_Mid_Act+0x4a>
     78c:	f0 92 44 01 	sts	0x0144, r15
     790:	10 92 67 01 	sts	0x0167, r1
     794:	80 91 44 01 	lds	r24, 0x0144
     798:	63 e0       	ldi	r22, 0x03	; 3
     79a:	0e 94 5f 0b 	call	0x16be	; 0x16be <__udivmodqi4>
     79e:	28 2f       	mov	r18, r24
     7a0:	30 e0       	ldi	r19, 0x00	; 0
     7a2:	3a 83       	std	Y+2, r19	; 0x02
     7a4:	29 83       	std	Y+1, r18	; 0x01
     7a6:	00 e0       	ldi	r16, 0x00	; 0
     7a8:	10 e0       	ldi	r17, 0x00	; 0
     7aa:	74 e4       	ldi	r23, 0x44	; 68
     7ac:	27 2e       	mov	r2, r23
     7ae:	71 e0       	ldi	r23, 0x01	; 1
     7b0:	37 2e       	mov	r3, r23
     7b2:	24 0c       	add	r2, r4
     7b4:	35 1c       	adc	r3, r5
     7b6:	6d 2c       	mov	r6, r13
     7b8:	77 24       	eor	r7, r7
     7ba:	8e 2c       	mov	r8, r14
     7bc:	99 24       	eor	r9, r9
     7be:	af 2c       	mov	r10, r15
     7c0:	bb 24       	eor	r11, r11
     7c2:	43 c0       	rjmp	.+134    	; 0x84a <RGB_Brightness_Inc_Mid_Act+0x104>
     7c4:	eb 81       	ldd	r30, Y+3	; 0x03
     7c6:	fc 81       	ldd	r31, Y+4	; 0x04
     7c8:	85 81       	ldd	r24, Z+5	; 0x05
     7ca:	88 23       	and	r24, r24
     7cc:	21 f0       	breq	.+8      	; 0x7d6 <RGB_Brightness_Inc_Mid_Act+0x90>
     7ce:	8d 2d       	mov	r24, r13
     7d0:	6e 2d       	mov	r22, r14
     7d2:	4f 2d       	mov	r20, r15
     7d4:	03 c0       	rjmp	.+6      	; 0x7dc <RGB_Brightness_Inc_Mid_Act+0x96>
     7d6:	80 e0       	ldi	r24, 0x00	; 0
     7d8:	60 e0       	ldi	r22, 0x00	; 0
     7da:	40 e0       	ldi	r20, 0x00	; 0
     7dc:	0e 94 57 01 	call	0x2ae	; 0x2ae <WS2812B_Send_Pixel>
     7e0:	2b 81       	ldd	r18, Y+3	; 0x03
     7e2:	3c 81       	ldd	r19, Y+4	; 0x04
     7e4:	2f 5f       	subi	r18, 0xFF	; 255
     7e6:	3f 4f       	sbci	r19, 0xFF	; 255
     7e8:	3c 83       	std	Y+4, r19	; 0x04
     7ea:	2b 83       	std	Y+3, r18	; 0x03
     7ec:	8b 81       	ldd	r24, Y+3	; 0x03
     7ee:	9c 81       	ldd	r25, Y+4	; 0x04
     7f0:	82 15       	cp	r24, r2
     7f2:	93 05       	cpc	r25, r3
     7f4:	39 f7       	brne	.-50     	; 0x7c4 <RGB_Brightness_Inc_Mid_Act+0x7e>
     7f6:	20 2f       	mov	r18, r16
     7f8:	60 16       	cp	r6, r16
     7fa:	71 06       	cpc	r7, r17
     7fc:	08 f4       	brcc	.+2      	; 0x800 <RGB_Brightness_Inc_Mid_Act+0xba>
     7fe:	26 2d       	mov	r18, r6
     800:	60 2f       	mov	r22, r16
     802:	80 16       	cp	r8, r16
     804:	91 06       	cpc	r9, r17
     806:	08 f4       	brcc	.+2      	; 0x80a <RGB_Brightness_Inc_Mid_Act+0xc4>
     808:	68 2d       	mov	r22, r8
     80a:	40 2f       	mov	r20, r16
     80c:	a0 16       	cp	r10, r16
     80e:	b1 06       	cpc	r11, r17
     810:	08 f4       	brcc	.+2      	; 0x814 <RGB_Brightness_Inc_Mid_Act+0xce>
     812:	4a 2d       	mov	r20, r10
     814:	82 2f       	mov	r24, r18
     816:	0e 94 57 01 	call	0x2ae	; 0x2ae <WS2812B_Send_Pixel>
     81a:	5c 82       	std	Y+4, r5	; 0x04
     81c:	4b 82       	std	Y+3, r4	; 0x03
     81e:	0a c0       	rjmp	.+20     	; 0x834 <RGB_Brightness_Inc_Mid_Act+0xee>
     820:	80 e0       	ldi	r24, 0x00	; 0
     822:	60 e0       	ldi	r22, 0x00	; 0
     824:	40 e0       	ldi	r20, 0x00	; 0
     826:	0e 94 57 01 	call	0x2ae	; 0x2ae <WS2812B_Send_Pixel>
     82a:	eb 81       	ldd	r30, Y+3	; 0x03
     82c:	fc 81       	ldd	r31, Y+4	; 0x04
     82e:	31 96       	adiw	r30, 0x01	; 1
     830:	fc 83       	std	Y+4, r31	; 0x04
     832:	eb 83       	std	Y+3, r30	; 0x03
     834:	2b 81       	ldd	r18, Y+3	; 0x03
     836:	3c 81       	ldd	r19, Y+4	; 0x04
     838:	2e 31       	cpi	r18, 0x1E	; 30
     83a:	31 05       	cpc	r19, r1
     83c:	88 f3       	brcs	.-30     	; 0x820 <RGB_Brightness_Inc_Mid_Act+0xda>
     83e:	8c e2       	ldi	r24, 0x2C	; 44
     840:	91 e0       	ldi	r25, 0x01	; 1
     842:	01 97       	sbiw	r24, 0x01	; 1
     844:	f1 f7       	brne	.-4      	; 0x842 <RGB_Brightness_Inc_Mid_Act+0xfc>
     846:	0f 5f       	subi	r16, 0xFF	; 255
     848:	1f 4f       	sbci	r17, 0xFF	; 255
     84a:	89 81       	ldd	r24, Y+1	; 0x01
     84c:	9a 81       	ldd	r25, Y+2	; 0x02
     84e:	08 17       	cp	r16, r24
     850:	19 07       	cpc	r17, r25
     852:	28 f4       	brcc	.+10     	; 0x85e <RGB_Brightness_Inc_Mid_Act+0x118>
     854:	e4 e4       	ldi	r30, 0x44	; 68
     856:	f1 e0       	ldi	r31, 0x01	; 1
     858:	fc 83       	std	Y+4, r31	; 0x04
     85a:	eb 83       	std	Y+3, r30	; 0x03
     85c:	c7 cf       	rjmp	.-114    	; 0x7ec <RGB_Brightness_Inc_Mid_Act+0xa6>
     85e:	0f 90       	pop	r0
     860:	0f 90       	pop	r0
     862:	0f 90       	pop	r0
     864:	0f 90       	pop	r0
     866:	cf 91       	pop	r28
     868:	df 91       	pop	r29
     86a:	1f 91       	pop	r17
     86c:	0f 91       	pop	r16
     86e:	ff 90       	pop	r15
     870:	ef 90       	pop	r14
     872:	df 90       	pop	r13
     874:	bf 90       	pop	r11
     876:	af 90       	pop	r10
     878:	9f 90       	pop	r9
     87a:	8f 90       	pop	r8
     87c:	7f 90       	pop	r7
     87e:	6f 90       	pop	r6
     880:	5f 90       	pop	r5
     882:	4f 90       	pop	r4
     884:	3f 90       	pop	r3
     886:	2f 90       	pop	r2
     888:	08 95       	ret

0000088a <RGB_Brightness_Dec_Mid>:
     88a:	2f 92       	push	r2
     88c:	3f 92       	push	r3
     88e:	4f 92       	push	r4
     890:	5f 92       	push	r5
     892:	6f 92       	push	r6
     894:	7f 92       	push	r7
     896:	8f 92       	push	r8
     898:	9f 92       	push	r9
     89a:	af 92       	push	r10
     89c:	bf 92       	push	r11
     89e:	cf 92       	push	r12
     8a0:	df 92       	push	r13
     8a2:	ef 92       	push	r14
     8a4:	ff 92       	push	r15
     8a6:	0f 93       	push	r16
     8a8:	1f 93       	push	r17
     8aa:	cf 93       	push	r28
     8ac:	df 93       	push	r29
     8ae:	d8 2e       	mov	r13, r24
     8b0:	e6 2e       	mov	r14, r22
     8b2:	f4 2e       	mov	r15, r20
     8b4:	29 01       	movw	r4, r18
     8b6:	80 93 44 01 	sts	0x0144, r24
     8ba:	86 17       	cp	r24, r22
     8bc:	10 f4       	brcc	.+4      	; 0x8c2 <RGB_Brightness_Dec_Mid+0x38>
     8be:	60 93 44 01 	sts	0x0144, r22
     8c2:	80 91 44 01 	lds	r24, 0x0144
     8c6:	8f 15       	cp	r24, r15
     8c8:	10 f4       	brcc	.+4      	; 0x8ce <RGB_Brightness_Dec_Mid+0x44>
     8ca:	f0 92 44 01 	sts	0x0144, r15
     8ce:	00 e0       	ldi	r16, 0x00	; 0
     8d0:	10 e0       	ldi	r17, 0x00	; 0
     8d2:	f4 e4       	ldi	r31, 0x44	; 68
     8d4:	2f 2e       	mov	r2, r31
     8d6:	f1 e0       	ldi	r31, 0x01	; 1
     8d8:	3f 2e       	mov	r3, r31
     8da:	24 0c       	add	r2, r4
     8dc:	35 1c       	adc	r3, r5
     8de:	6d 2c       	mov	r6, r13
     8e0:	77 24       	eor	r7, r7
     8e2:	8e 2c       	mov	r8, r14
     8e4:	99 24       	eor	r9, r9
     8e6:	af 2c       	mov	r10, r15
     8e8:	bb 24       	eor	r11, r11
    can be achieved.
*/
void
_delay_loop_1(uint8_t __count)
{
	__asm__ volatile (
     8ea:	e0 e6       	ldi	r30, 0x60	; 96
     8ec:	ce 2e       	mov	r12, r30
     8ee:	31 c0       	rjmp	.+98     	; 0x952 <__stack+0x53>
     8f0:	8d 81       	ldd	r24, Y+5	; 0x05
     8f2:	88 23       	and	r24, r24
     8f4:	21 f0       	breq	.+8      	; 0x8fe <RGB_Brightness_Dec_Mid+0x74>
     8f6:	8d 2d       	mov	r24, r13
     8f8:	6e 2d       	mov	r22, r14
     8fa:	4f 2d       	mov	r20, r15
     8fc:	03 c0       	rjmp	.+6      	; 0x904 <__stack+0x5>
     8fe:	80 e0       	ldi	r24, 0x00	; 0
     900:	60 e0       	ldi	r22, 0x00	; 0
     902:	40 e0       	ldi	r20, 0x00	; 0
     904:	0e 94 57 01 	call	0x2ae	; 0x2ae <WS2812B_Send_Pixel>
     908:	21 96       	adiw	r28, 0x01	; 1
     90a:	c2 15       	cp	r28, r2
     90c:	d3 05       	cpc	r29, r3
     90e:	81 f7       	brne	.-32     	; 0x8f0 <RGB_Brightness_Dec_Mid+0x66>
     910:	20 2f       	mov	r18, r16
     912:	60 16       	cp	r6, r16
     914:	71 06       	cpc	r7, r17
     916:	08 f4       	brcc	.+2      	; 0x91a <__stack+0x1b>
     918:	26 2d       	mov	r18, r6
     91a:	60 2f       	mov	r22, r16
     91c:	80 16       	cp	r8, r16
     91e:	91 06       	cpc	r9, r17
     920:	08 f4       	brcc	.+2      	; 0x924 <__stack+0x25>
     922:	68 2d       	mov	r22, r8
     924:	40 2f       	mov	r20, r16
     926:	a0 16       	cp	r10, r16
     928:	b1 06       	cpc	r11, r17
     92a:	08 f4       	brcc	.+2      	; 0x92e <__stack+0x2f>
     92c:	4a 2d       	mov	r20, r10
     92e:	82 2f       	mov	r24, r18
     930:	0e 94 57 01 	call	0x2ae	; 0x2ae <WS2812B_Send_Pixel>
     934:	c2 01       	movw	r24, r4
     936:	04 c0       	rjmp	.+8      	; 0x940 <__stack+0x41>
     938:	2c 2d       	mov	r18, r12
     93a:	2a 95       	dec	r18
     93c:	f1 f7       	brne	.-4      	; 0x93a <__stack+0x3b>
     93e:	01 96       	adiw	r24, 0x01	; 1
     940:	8d 31       	cpi	r24, 0x1D	; 29
     942:	91 05       	cpc	r25, r1
     944:	c8 f3       	brcs	.-14     	; 0x938 <__stack+0x39>
    milliseconds can be achieved.
 */
void
_delay_loop_2(uint16_t __count)
{
	__asm__ volatile (
     946:	8c e2       	ldi	r24, 0x2C	; 44
     948:	91 e0       	ldi	r25, 0x01	; 1
     94a:	01 97       	sbiw	r24, 0x01	; 1
     94c:	f1 f7       	brne	.-4      	; 0x94a <__stack+0x4b>
     94e:	0f 5f       	subi	r16, 0xFF	; 255
     950:	1f 4f       	sbci	r17, 0xFF	; 255
     952:	80 91 44 01 	lds	r24, 0x0144
     956:	90 e0       	ldi	r25, 0x00	; 0
     958:	08 17       	cp	r16, r24
     95a:	19 07       	cpc	r17, r25
     95c:	18 f4       	brcc	.+6      	; 0x964 <__stack+0x65>
     95e:	c4 e4       	ldi	r28, 0x44	; 68
     960:	d1 e0       	ldi	r29, 0x01	; 1
     962:	d3 cf       	rjmp	.-90     	; 0x90a <__stack+0xb>
     964:	df 91       	pop	r29
     966:	cf 91       	pop	r28
     968:	1f 91       	pop	r17
     96a:	0f 91       	pop	r16
     96c:	ff 90       	pop	r15
     96e:	ef 90       	pop	r14
     970:	df 90       	pop	r13
     972:	cf 90       	pop	r12
     974:	bf 90       	pop	r11
     976:	af 90       	pop	r10
     978:	9f 90       	pop	r9
     97a:	8f 90       	pop	r8
     97c:	7f 90       	pop	r7
     97e:	6f 90       	pop	r6
     980:	5f 90       	pop	r5
     982:	4f 90       	pop	r4
     984:	3f 90       	pop	r3
     986:	2f 90       	pop	r2
     988:	08 95       	ret

0000098a <RGB_Brightness_Inc_Mid>:
     98a:	2f 92       	push	r2
     98c:	3f 92       	push	r3
     98e:	4f 92       	push	r4
     990:	5f 92       	push	r5
     992:	6f 92       	push	r6
     994:	7f 92       	push	r7
     996:	8f 92       	push	r8
     998:	9f 92       	push	r9
     99a:	af 92       	push	r10
     99c:	bf 92       	push	r11
     99e:	cf 92       	push	r12
     9a0:	df 92       	push	r13
     9a2:	ef 92       	push	r14
     9a4:	ff 92       	push	r15
     9a6:	0f 93       	push	r16
     9a8:	1f 93       	push	r17
     9aa:	df 93       	push	r29
     9ac:	cf 93       	push	r28
     9ae:	00 d0       	rcall	.+0      	; 0x9b0 <RGB_Brightness_Inc_Mid+0x26>
     9b0:	00 d0       	rcall	.+0      	; 0x9b2 <RGB_Brightness_Inc_Mid+0x28>
     9b2:	cd b7       	in	r28, 0x3d	; 61
     9b4:	de b7       	in	r29, 0x3e	; 62
     9b6:	98 2e       	mov	r9, r24
     9b8:	a6 2e       	mov	r10, r22
     9ba:	b4 2e       	mov	r11, r20
     9bc:	79 01       	movw	r14, r18
     9be:	80 93 44 01 	sts	0x0144, r24
     9c2:	86 17       	cp	r24, r22
     9c4:	10 f4       	brcc	.+4      	; 0x9ca <RGB_Brightness_Inc_Mid+0x40>
     9c6:	60 93 44 01 	sts	0x0144, r22
     9ca:	80 91 44 01 	lds	r24, 0x0144
     9ce:	8b 15       	cp	r24, r11
     9d0:	10 f4       	brcc	.+4      	; 0x9d6 <RGB_Brightness_Inc_Mid+0x4c>
     9d2:	b0 92 44 01 	sts	0x0144, r11
     9d6:	00 e0       	ldi	r16, 0x00	; 0
     9d8:	10 e0       	ldi	r17, 0x00	; 0
     9da:	89 2d       	mov	r24, r9
     9dc:	90 e0       	ldi	r25, 0x00	; 0
     9de:	9a 83       	std	Y+2, r25	; 0x02
     9e0:	89 83       	std	Y+1, r24	; 0x01
     9e2:	2a 2c       	mov	r2, r10
     9e4:	33 24       	eor	r3, r3
     9e6:	4b 2c       	mov	r4, r11
     9e8:	55 24       	eor	r5, r5
     9ea:	ac e1       	ldi	r26, 0x1C	; 28
     9ec:	ca 2e       	mov	r12, r26
     9ee:	d1 2c       	mov	r13, r1
     9f0:	ce 18       	sub	r12, r14
     9f2:	df 08       	sbc	r13, r15
     9f4:	4c c0       	rjmp	.+152    	; 0xa8e <RGB_Brightness_Inc_Mid+0x104>
     9f6:	89 2d       	mov	r24, r9
     9f8:	6a 2d       	mov	r22, r10
     9fa:	4b 2d       	mov	r20, r11
     9fc:	0e 94 57 01 	call	0x2ae	; 0x2ae <WS2812B_Send_Pixel>
     a00:	08 94       	sec
     a02:	61 1c       	adc	r6, r1
     a04:	71 1c       	adc	r7, r1
     a06:	6e 14       	cp	r6, r14
     a08:	7f 04       	cpc	r7, r15
     a0a:	a8 f3       	brcs	.-22     	; 0x9f6 <RGB_Brightness_Inc_Mid+0x6c>
     a0c:	20 2f       	mov	r18, r16
     a0e:	e9 81       	ldd	r30, Y+1	; 0x01
     a10:	fa 81       	ldd	r31, Y+2	; 0x02
     a12:	e0 17       	cp	r30, r16
     a14:	f1 07       	cpc	r31, r17
     a16:	08 f4       	brcc	.+2      	; 0xa1a <RGB_Brightness_Inc_Mid+0x90>
     a18:	2e 2f       	mov	r18, r30
     a1a:	62 2e       	mov	r6, r18
     a1c:	60 2f       	mov	r22, r16
     a1e:	20 16       	cp	r2, r16
     a20:	31 06       	cpc	r3, r17
     a22:	08 f4       	brcc	.+2      	; 0xa26 <RGB_Brightness_Inc_Mid+0x9c>
     a24:	62 2d       	mov	r22, r2
     a26:	86 2e       	mov	r8, r22
     a28:	40 2f       	mov	r20, r16
     a2a:	40 16       	cp	r4, r16
     a2c:	51 06       	cpc	r5, r17
     a2e:	08 f4       	brcc	.+2      	; 0xa32 <RGB_Brightness_Inc_Mid+0xa8>
     a30:	44 2d       	mov	r20, r4
     a32:	74 2e       	mov	r7, r20
     a34:	86 2d       	mov	r24, r6
     a36:	68 2d       	mov	r22, r8
     a38:	0e 94 57 01 	call	0x2ae	; 0x2ae <WS2812B_Send_Pixel>
     a3c:	fc 82       	std	Y+4, r15	; 0x04
     a3e:	eb 82       	std	Y+3, r14	; 0x03
     a40:	05 c0       	rjmp	.+10     	; 0xa4c <RGB_Brightness_Inc_Mid+0xc2>
     a42:	80 e0       	ldi	r24, 0x00	; 0
     a44:	60 e0       	ldi	r22, 0x00	; 0
     a46:	40 e0       	ldi	r20, 0x00	; 0
     a48:	0e 94 57 01 	call	0x2ae	; 0x2ae <WS2812B_Send_Pixel>
     a4c:	8b 81       	ldd	r24, Y+3	; 0x03
     a4e:	9c 81       	ldd	r25, Y+4	; 0x04
     a50:	01 96       	adiw	r24, 0x01	; 1
     a52:	9c 83       	std	Y+4, r25	; 0x04
     a54:	8b 83       	std	Y+3, r24	; 0x03
     a56:	8c 15       	cp	r24, r12
     a58:	9d 05       	cpc	r25, r13
     a5a:	98 f3       	brcs	.-26     	; 0xa42 <RGB_Brightness_Inc_Mid+0xb8>
     a5c:	86 2d       	mov	r24, r6
     a5e:	68 2d       	mov	r22, r8
     a60:	47 2d       	mov	r20, r7
     a62:	0e 94 57 01 	call	0x2ae	; 0x2ae <WS2812B_Send_Pixel>
     a66:	66 24       	eor	r6, r6
     a68:	77 24       	eor	r7, r7
     a6a:	08 c0       	rjmp	.+16     	; 0xa7c <RGB_Brightness_Inc_Mid+0xf2>
     a6c:	89 2d       	mov	r24, r9
     a6e:	6a 2d       	mov	r22, r10
     a70:	4b 2d       	mov	r20, r11
     a72:	0e 94 57 01 	call	0x2ae	; 0x2ae <WS2812B_Send_Pixel>
     a76:	08 94       	sec
     a78:	61 1c       	adc	r6, r1
     a7a:	71 1c       	adc	r7, r1
     a7c:	6e 14       	cp	r6, r14
     a7e:	7f 04       	cpc	r7, r15
     a80:	a8 f3       	brcs	.-22     	; 0xa6c <RGB_Brightness_Inc_Mid+0xe2>
     a82:	8c e2       	ldi	r24, 0x2C	; 44
     a84:	91 e0       	ldi	r25, 0x01	; 1
     a86:	01 97       	sbiw	r24, 0x01	; 1
     a88:	f1 f7       	brne	.-4      	; 0xa86 <RGB_Brightness_Inc_Mid+0xfc>
     a8a:	0f 5f       	subi	r16, 0xFF	; 255
     a8c:	1f 4f       	sbci	r17, 0xFF	; 255
     a8e:	80 91 44 01 	lds	r24, 0x0144
     a92:	90 e0       	ldi	r25, 0x00	; 0
     a94:	08 17       	cp	r16, r24
     a96:	19 07       	cpc	r17, r25
     a98:	18 f4       	brcc	.+6      	; 0xaa0 <RGB_Brightness_Inc_Mid+0x116>
     a9a:	66 24       	eor	r6, r6
     a9c:	77 24       	eor	r7, r7
     a9e:	b3 cf       	rjmp	.-154    	; 0xa06 <RGB_Brightness_Inc_Mid+0x7c>
     aa0:	0f 90       	pop	r0
     aa2:	0f 90       	pop	r0
     aa4:	0f 90       	pop	r0
     aa6:	0f 90       	pop	r0
     aa8:	cf 91       	pop	r28
     aaa:	df 91       	pop	r29
     aac:	1f 91       	pop	r17
     aae:	0f 91       	pop	r16
     ab0:	ff 90       	pop	r15
     ab2:	ef 90       	pop	r14
     ab4:	df 90       	pop	r13
     ab6:	cf 90       	pop	r12
     ab8:	bf 90       	pop	r11
     aba:	af 90       	pop	r10
     abc:	9f 90       	pop	r9
     abe:	8f 90       	pop	r8
     ac0:	7f 90       	pop	r7
     ac2:	6f 90       	pop	r6
     ac4:	5f 90       	pop	r5
     ac6:	4f 90       	pop	r4
     ac8:	3f 90       	pop	r3
     aca:	2f 90       	pop	r2
     acc:	08 95       	ret

00000ace <RGB_Animation_Slide_Fill_Mid>:
     ace:	af 92       	push	r10
     ad0:	bf 92       	push	r11
     ad2:	cf 92       	push	r12
     ad4:	df 92       	push	r13
     ad6:	ef 92       	push	r14
     ad8:	ff 92       	push	r15
     ada:	0f 93       	push	r16
     adc:	1f 93       	push	r17
     ade:	cf 93       	push	r28
     ae0:	df 93       	push	r29
     ae2:	a8 2e       	mov	r10, r24
     ae4:	b6 2e       	mov	r11, r22
     ae6:	d4 2e       	mov	r13, r20
     ae8:	b9 e4       	ldi	r27, 0x49	; 73
     aea:	eb 2e       	mov	r14, r27
     aec:	b1 e0       	ldi	r27, 0x01	; 1
     aee:	fb 2e       	mov	r15, r27
     af0:	87 01       	movw	r16, r14
     af2:	04 5e       	subi	r16, 0xE4	; 228
     af4:	1f 4f       	sbci	r17, 0xFF	; 255
     af6:	c0 e0       	ldi	r28, 0x00	; 0
     af8:	d0 e0       	ldi	r29, 0x00	; 0
     afa:	cc 24       	eor	r12, r12
     afc:	c3 94       	inc	r12
     afe:	8a 2d       	mov	r24, r10
     b00:	6b 2d       	mov	r22, r11
     b02:	4d 2d       	mov	r20, r13
     b04:	9e 01       	movw	r18, r28
     b06:	0e 94 c5 04 	call	0x98a	; 0x98a <RGB_Brightness_Inc_Mid>
     b0a:	f7 01       	movw	r30, r14
     b0c:	c1 92       	st	Z+, r12
     b0e:	7f 01       	movw	r14, r30
     b10:	f8 01       	movw	r30, r16
     b12:	c0 82       	st	Z, r12
     b14:	21 96       	adiw	r28, 0x01	; 1
     b16:	01 50       	subi	r16, 0x01	; 1
     b18:	10 40       	sbci	r17, 0x00	; 0
     b1a:	ce 30       	cpi	r28, 0x0E	; 14
     b1c:	d1 05       	cpc	r29, r1
     b1e:	79 f7       	brne	.-34     	; 0xafe <RGB_Animation_Slide_Fill_Mid+0x30>
     b20:	df 91       	pop	r29
     b22:	cf 91       	pop	r28
     b24:	1f 91       	pop	r17
     b26:	0f 91       	pop	r16
     b28:	ff 90       	pop	r15
     b2a:	ef 90       	pop	r14
     b2c:	df 90       	pop	r13
     b2e:	cf 90       	pop	r12
     b30:	bf 90       	pop	r11
     b32:	af 90       	pop	r10
     b34:	08 95       	ret

00000b36 <RGB_Brightness_Dec>:
     b36:	2f 92       	push	r2
     b38:	3f 92       	push	r3
     b3a:	4f 92       	push	r4
     b3c:	5f 92       	push	r5
     b3e:	6f 92       	push	r6
     b40:	7f 92       	push	r7
     b42:	8f 92       	push	r8
     b44:	9f 92       	push	r9
     b46:	bf 92       	push	r11
     b48:	cf 92       	push	r12
     b4a:	df 92       	push	r13
     b4c:	ef 92       	push	r14
     b4e:	ff 92       	push	r15
     b50:	0f 93       	push	r16
     b52:	1f 93       	push	r17
     b54:	df 93       	push	r29
     b56:	cf 93       	push	r28
     b58:	cd b7       	in	r28, 0x3d	; 61
     b5a:	de b7       	in	r29, 0x3e	; 62
     b5c:	28 97       	sbiw	r28, 0x08	; 8
     b5e:	0f b6       	in	r0, 0x3f	; 63
     b60:	f8 94       	cli
     b62:	de bf       	out	0x3e, r29	; 62
     b64:	0f be       	out	0x3f, r0	; 63
     b66:	cd bf       	out	0x3d, r28	; 61
     b68:	b8 2e       	mov	r11, r24
     b6a:	c6 2e       	mov	r12, r22
     b6c:	d4 2e       	mov	r13, r20
     b6e:	49 01       	movw	r8, r18
     b70:	80 93 44 01 	sts	0x0144, r24
     b74:	86 17       	cp	r24, r22
     b76:	10 f4       	brcc	.+4      	; 0xb7c <RGB_Brightness_Dec+0x46>
     b78:	60 93 44 01 	sts	0x0144, r22
     b7c:	80 91 44 01 	lds	r24, 0x0144
     b80:	8d 15       	cp	r24, r13
     b82:	10 f4       	brcc	.+4      	; 0xb88 <RGB_Brightness_Dec+0x52>
     b84:	d0 92 44 01 	sts	0x0144, r13
     b88:	20 91 44 01 	lds	r18, 0x0144
     b8c:	82 2f       	mov	r24, r18
     b8e:	90 e0       	ldi	r25, 0x00	; 0
     b90:	83 70       	andi	r24, 0x03	; 3
     b92:	90 70       	andi	r25, 0x00	; 0
     b94:	00 97       	sbiw	r24, 0x00	; 0
     b96:	19 f0       	breq	.+6      	; 0xb9e <RGB_Brightness_Dec+0x68>
     b98:	28 1b       	sub	r18, r24
     b9a:	20 93 44 01 	sts	0x0144, r18
     b9e:	80 91 44 01 	lds	r24, 0x0144
     ba2:	08 2f       	mov	r16, r24
     ba4:	10 e0       	ldi	r17, 0x00	; 0
     ba6:	ee 24       	eor	r14, r14
     ba8:	ff 24       	eor	r15, r15
     baa:	94 01       	movw	r18, r8
     bac:	2c 5b       	subi	r18, 0xBC	; 188
     bae:	3e 4f       	sbci	r19, 0xFE	; 254
     bb0:	3a 83       	std	Y+2, r19	; 0x02
     bb2:	29 83       	std	Y+1, r18	; 0x01
     bb4:	1c 83       	std	Y+4, r17	; 0x04
     bb6:	0b 83       	std	Y+3, r16	; 0x03
     bb8:	8b 2d       	mov	r24, r11
     bba:	90 e0       	ldi	r25, 0x00	; 0
     bbc:	9e 83       	std	Y+6, r25	; 0x06
     bbe:	8d 83       	std	Y+5, r24	; 0x05
     bc0:	2c 2c       	mov	r2, r12
     bc2:	33 24       	eor	r3, r3
     bc4:	4d 2c       	mov	r4, r13
     bc6:	55 24       	eor	r5, r5
     bc8:	c8 01       	movw	r24, r16
     bca:	8c 7f       	andi	r24, 0xFC	; 252
     bcc:	90 70       	andi	r25, 0x00	; 0
     bce:	04 96       	adiw	r24, 0x04	; 4
     bd0:	66 24       	eor	r6, r6
     bd2:	77 24       	eor	r7, r7
     bd4:	68 1a       	sub	r6, r24
     bd6:	79 0a       	sbc	r7, r25
     bd8:	54 c0       	rjmp	.+168    	; 0xc82 <RGB_Brightness_Dec+0x14c>
     bda:	ef 81       	ldd	r30, Y+7	; 0x07
     bdc:	f8 85       	ldd	r31, Y+8	; 0x08
     bde:	85 81       	ldd	r24, Z+5	; 0x05
     be0:	88 23       	and	r24, r24
     be2:	21 f0       	breq	.+8      	; 0xbec <RGB_Brightness_Dec+0xb6>
     be4:	8b 2d       	mov	r24, r11
     be6:	6c 2d       	mov	r22, r12
     be8:	4d 2d       	mov	r20, r13
     bea:	03 c0       	rjmp	.+6      	; 0xbf2 <RGB_Brightness_Dec+0xbc>
     bec:	80 e0       	ldi	r24, 0x00	; 0
     bee:	60 e0       	ldi	r22, 0x00	; 0
     bf0:	40 e0       	ldi	r20, 0x00	; 0
     bf2:	0e 94 57 01 	call	0x2ae	; 0x2ae <WS2812B_Send_Pixel>
     bf6:	2f 81       	ldd	r18, Y+7	; 0x07
     bf8:	38 85       	ldd	r19, Y+8	; 0x08
     bfa:	2f 5f       	subi	r18, 0xFF	; 255
     bfc:	3f 4f       	sbci	r19, 0xFF	; 255
     bfe:	38 87       	std	Y+8, r19	; 0x08
     c00:	2f 83       	std	Y+7, r18	; 0x07
     c02:	8f 81       	ldd	r24, Y+7	; 0x07
     c04:	98 85       	ldd	r25, Y+8	; 0x08
     c06:	e9 81       	ldd	r30, Y+1	; 0x01
     c08:	fa 81       	ldd	r31, Y+2	; 0x02
     c0a:	8e 17       	cp	r24, r30
     c0c:	9f 07       	cpc	r25, r31
     c0e:	29 f7       	brne	.-54     	; 0xbda <RGB_Brightness_Dec+0xa4>
     c10:	2b 81       	ldd	r18, Y+3	; 0x03
     c12:	3c 81       	ldd	r19, Y+4	; 0x04
     c14:	2e 0d       	add	r18, r14
     c16:	3f 1d       	adc	r19, r15
     c18:	8d 81       	ldd	r24, Y+5	; 0x05
     c1a:	9e 81       	ldd	r25, Y+6	; 0x06
     c1c:	82 17       	cp	r24, r18
     c1e:	93 07       	cpc	r25, r19
     c20:	14 f4       	brge	.+4      	; 0xc26 <RGB_Brightness_Dec+0xf0>
     c22:	8b 2d       	mov	r24, r11
     c24:	01 c0       	rjmp	.+2      	; 0xc28 <RGB_Brightness_Dec+0xf2>
     c26:	80 2f       	mov	r24, r16
     c28:	22 16       	cp	r2, r18
     c2a:	33 06       	cpc	r3, r19
     c2c:	14 f4       	brge	.+4      	; 0xc32 <RGB_Brightness_Dec+0xfc>
     c2e:	6c 2d       	mov	r22, r12
     c30:	01 c0       	rjmp	.+2      	; 0xc34 <RGB_Brightness_Dec+0xfe>
     c32:	60 2f       	mov	r22, r16
     c34:	42 16       	cp	r4, r18
     c36:	53 06       	cpc	r5, r19
     c38:	14 f4       	brge	.+4      	; 0xc3e <RGB_Brightness_Dec+0x108>
     c3a:	4d 2d       	mov	r20, r13
     c3c:	01 c0       	rjmp	.+2      	; 0xc40 <RGB_Brightness_Dec+0x10a>
     c3e:	40 2f       	mov	r20, r16
     c40:	0e 94 57 01 	call	0x2ae	; 0x2ae <WS2812B_Send_Pixel>
     c44:	98 86       	std	Y+8, r9	; 0x08
     c46:	8f 82       	std	Y+7, r8	; 0x07
     c48:	0a c0       	rjmp	.+20     	; 0xc5e <RGB_Brightness_Dec+0x128>
     c4a:	80 e0       	ldi	r24, 0x00	; 0
     c4c:	60 e0       	ldi	r22, 0x00	; 0
     c4e:	40 e0       	ldi	r20, 0x00	; 0
     c50:	0e 94 57 01 	call	0x2ae	; 0x2ae <WS2812B_Send_Pixel>
     c54:	ef 81       	ldd	r30, Y+7	; 0x07
     c56:	f8 85       	ldd	r31, Y+8	; 0x08
     c58:	31 96       	adiw	r30, 0x01	; 1
     c5a:	f8 87       	std	Y+8, r31	; 0x08
     c5c:	ef 83       	std	Y+7, r30	; 0x07
     c5e:	2f 81       	ldd	r18, Y+7	; 0x07
     c60:	38 85       	ldd	r19, Y+8	; 0x08
     c62:	2e 31       	cpi	r18, 0x1E	; 30
     c64:	31 05       	cpc	r19, r1
     c66:	88 f3       	brcs	.-30     	; 0xc4a <RGB_Brightness_Dec+0x114>
     c68:	88 e5       	ldi	r24, 0x58	; 88
     c6a:	92 e0       	ldi	r25, 0x02	; 2
     c6c:	01 97       	sbiw	r24, 0x01	; 1
     c6e:	f1 f7       	brne	.-4      	; 0xc6c <RGB_Brightness_Dec+0x136>
     c70:	04 50       	subi	r16, 0x04	; 4
     c72:	10 40       	sbci	r17, 0x00	; 0
     c74:	8c ef       	ldi	r24, 0xFC	; 252
     c76:	9f ef       	ldi	r25, 0xFF	; 255
     c78:	e8 0e       	add	r14, r24
     c7a:	f9 1e       	adc	r15, r25
     c7c:	e6 14       	cp	r14, r6
     c7e:	f7 04       	cpc	r15, r7
     c80:	29 f0       	breq	.+10     	; 0xc8c <RGB_Brightness_Dec+0x156>
     c82:	e4 e4       	ldi	r30, 0x44	; 68
     c84:	f1 e0       	ldi	r31, 0x01	; 1
     c86:	f8 87       	std	Y+8, r31	; 0x08
     c88:	ef 83       	std	Y+7, r30	; 0x07
     c8a:	bb cf       	rjmp	.-138    	; 0xc02 <RGB_Brightness_Dec+0xcc>
     c8c:	28 96       	adiw	r28, 0x08	; 8
     c8e:	0f b6       	in	r0, 0x3f	; 63
     c90:	f8 94       	cli
     c92:	de bf       	out	0x3e, r29	; 62
     c94:	0f be       	out	0x3f, r0	; 63
     c96:	cd bf       	out	0x3d, r28	; 61
     c98:	cf 91       	pop	r28
     c9a:	df 91       	pop	r29
     c9c:	1f 91       	pop	r17
     c9e:	0f 91       	pop	r16
     ca0:	ff 90       	pop	r15
     ca2:	ef 90       	pop	r14
     ca4:	df 90       	pop	r13
     ca6:	cf 90       	pop	r12
     ca8:	bf 90       	pop	r11
     caa:	9f 90       	pop	r9
     cac:	8f 90       	pop	r8
     cae:	7f 90       	pop	r7
     cb0:	6f 90       	pop	r6
     cb2:	5f 90       	pop	r5
     cb4:	4f 90       	pop	r4
     cb6:	3f 90       	pop	r3
     cb8:	2f 90       	pop	r2
     cba:	08 95       	ret

00000cbc <RGB_Animation_Slide_Unfill_Mid>:
     cbc:	df 92       	push	r13
     cbe:	ef 92       	push	r14
     cc0:	ff 92       	push	r15
     cc2:	0f 93       	push	r16
     cc4:	1f 93       	push	r17
     cc6:	cf 93       	push	r28
     cc8:	df 93       	push	r29
     cca:	d8 2e       	mov	r13, r24
     ccc:	e6 2e       	mov	r14, r22
     cce:	f4 2e       	mov	r15, r20
     cd0:	05 e6       	ldi	r16, 0x65	; 101
     cd2:	11 e0       	ldi	r17, 0x01	; 1
     cd4:	cc e1       	ldi	r28, 0x1C	; 28
     cd6:	d0 e0       	ldi	r29, 0x00	; 0
     cd8:	8d 2d       	mov	r24, r13
     cda:	6e 2d       	mov	r22, r14
     cdc:	4f 2d       	mov	r20, r15
     cde:	9e 01       	movw	r18, r28
     ce0:	0e 94 9b 05 	call	0xb36	; 0xb36 <RGB_Brightness_Dec>
     ce4:	f8 01       	movw	r30, r16
     ce6:	10 82       	st	Z, r1
     ce8:	21 97       	sbiw	r28, 0x01	; 1
     cea:	01 50       	subi	r16, 0x01	; 1
     cec:	10 40       	sbci	r17, 0x00	; 0
     cee:	ff ef       	ldi	r31, 0xFF	; 255
     cf0:	cf 3f       	cpi	r28, 0xFF	; 255
     cf2:	df 07       	cpc	r29, r31
     cf4:	89 f7       	brne	.-30     	; 0xcd8 <RGB_Animation_Slide_Unfill_Mid+0x1c>
     cf6:	df 91       	pop	r29
     cf8:	cf 91       	pop	r28
     cfa:	1f 91       	pop	r17
     cfc:	0f 91       	pop	r16
     cfe:	ff 90       	pop	r15
     d00:	ef 90       	pop	r14
     d02:	df 90       	pop	r13
     d04:	08 95       	ret

00000d06 <RGB_Animation_Slide_Unfill>:
     d06:	df 92       	push	r13
     d08:	ef 92       	push	r14
     d0a:	ff 92       	push	r15
     d0c:	0f 93       	push	r16
     d0e:	1f 93       	push	r17
     d10:	cf 93       	push	r28
     d12:	df 93       	push	r29
     d14:	d8 2e       	mov	r13, r24
     d16:	e6 2e       	mov	r14, r22
     d18:	f4 2e       	mov	r15, r20
     d1a:	05 e6       	ldi	r16, 0x65	; 101
     d1c:	11 e0       	ldi	r17, 0x01	; 1
     d1e:	cc e1       	ldi	r28, 0x1C	; 28
     d20:	d0 e0       	ldi	r29, 0x00	; 0
     d22:	8d 2d       	mov	r24, r13
     d24:	6e 2d       	mov	r22, r14
     d26:	4f 2d       	mov	r20, r15
     d28:	9e 01       	movw	r18, r28
     d2a:	0e 94 9b 05 	call	0xb36	; 0xb36 <RGB_Brightness_Dec>
     d2e:	f8 01       	movw	r30, r16
     d30:	10 82       	st	Z, r1
     d32:	21 97       	sbiw	r28, 0x01	; 1
     d34:	01 50       	subi	r16, 0x01	; 1
     d36:	10 40       	sbci	r17, 0x00	; 0
     d38:	ff ef       	ldi	r31, 0xFF	; 255
     d3a:	cf 3f       	cpi	r28, 0xFF	; 255
     d3c:	df 07       	cpc	r29, r31
     d3e:	89 f7       	brne	.-30     	; 0xd22 <RGB_Animation_Slide_Unfill+0x1c>
     d40:	df 91       	pop	r29
     d42:	cf 91       	pop	r28
     d44:	1f 91       	pop	r17
     d46:	0f 91       	pop	r16
     d48:	ff 90       	pop	r15
     d4a:	ef 90       	pop	r14
     d4c:	df 90       	pop	r13
     d4e:	08 95       	ret

00000d50 <RGB_Brightness_Inc>:
     d50:	2f 92       	push	r2
     d52:	3f 92       	push	r3
     d54:	4f 92       	push	r4
     d56:	5f 92       	push	r5
     d58:	6f 92       	push	r6
     d5a:	7f 92       	push	r7
     d5c:	8f 92       	push	r8
     d5e:	9f 92       	push	r9
     d60:	af 92       	push	r10
     d62:	bf 92       	push	r11
     d64:	df 92       	push	r13
     d66:	ef 92       	push	r14
     d68:	ff 92       	push	r15
     d6a:	0f 93       	push	r16
     d6c:	1f 93       	push	r17
     d6e:	df 93       	push	r29
     d70:	cf 93       	push	r28
     d72:	00 d0       	rcall	.+0      	; 0xd74 <RGB_Brightness_Inc+0x24>
     d74:	00 d0       	rcall	.+0      	; 0xd76 <RGB_Brightness_Inc+0x26>
     d76:	cd b7       	in	r28, 0x3d	; 61
     d78:	de b7       	in	r29, 0x3e	; 62
     d7a:	d8 2e       	mov	r13, r24
     d7c:	e6 2e       	mov	r14, r22
     d7e:	f4 2e       	mov	r15, r20
     d80:	29 01       	movw	r4, r18
     d82:	80 93 44 01 	sts	0x0144, r24
     d86:	86 17       	cp	r24, r22
     d88:	10 f4       	brcc	.+4      	; 0xd8e <RGB_Brightness_Inc+0x3e>
     d8a:	60 93 44 01 	sts	0x0144, r22
     d8e:	80 91 44 01 	lds	r24, 0x0144
     d92:	8f 15       	cp	r24, r15
     d94:	10 f4       	brcc	.+4      	; 0xd9a <RGB_Brightness_Inc+0x4a>
     d96:	f0 92 44 01 	sts	0x0144, r15
     d9a:	80 91 44 01 	lds	r24, 0x0144
     d9e:	63 e0       	ldi	r22, 0x03	; 3
     da0:	0e 94 5f 0b 	call	0x16be	; 0x16be <__udivmodqi4>
     da4:	28 2f       	mov	r18, r24
     da6:	30 e0       	ldi	r19, 0x00	; 0
     da8:	3a 83       	std	Y+2, r19	; 0x02
     daa:	29 83       	std	Y+1, r18	; 0x01
     dac:	00 e0       	ldi	r16, 0x00	; 0
     dae:	10 e0       	ldi	r17, 0x00	; 0
     db0:	84 e4       	ldi	r24, 0x44	; 68
     db2:	28 2e       	mov	r2, r24
     db4:	81 e0       	ldi	r24, 0x01	; 1
     db6:	38 2e       	mov	r3, r24
     db8:	24 0c       	add	r2, r4
     dba:	35 1c       	adc	r3, r5
     dbc:	6d 2c       	mov	r6, r13
     dbe:	77 24       	eor	r7, r7
     dc0:	8e 2c       	mov	r8, r14
     dc2:	99 24       	eor	r9, r9
     dc4:	af 2c       	mov	r10, r15
     dc6:	bb 24       	eor	r11, r11
     dc8:	43 c0       	rjmp	.+134    	; 0xe50 <RGB_Brightness_Inc+0x100>
     dca:	eb 81       	ldd	r30, Y+3	; 0x03
     dcc:	fc 81       	ldd	r31, Y+4	; 0x04
     dce:	85 81       	ldd	r24, Z+5	; 0x05
     dd0:	88 23       	and	r24, r24
     dd2:	21 f0       	breq	.+8      	; 0xddc <RGB_Brightness_Inc+0x8c>
     dd4:	8d 2d       	mov	r24, r13
     dd6:	6e 2d       	mov	r22, r14
     dd8:	4f 2d       	mov	r20, r15
     dda:	03 c0       	rjmp	.+6      	; 0xde2 <RGB_Brightness_Inc+0x92>
     ddc:	80 e0       	ldi	r24, 0x00	; 0
     dde:	60 e0       	ldi	r22, 0x00	; 0
     de0:	40 e0       	ldi	r20, 0x00	; 0
     de2:	0e 94 57 01 	call	0x2ae	; 0x2ae <WS2812B_Send_Pixel>
     de6:	2b 81       	ldd	r18, Y+3	; 0x03
     de8:	3c 81       	ldd	r19, Y+4	; 0x04
     dea:	2f 5f       	subi	r18, 0xFF	; 255
     dec:	3f 4f       	sbci	r19, 0xFF	; 255
     dee:	3c 83       	std	Y+4, r19	; 0x04
     df0:	2b 83       	std	Y+3, r18	; 0x03
     df2:	8b 81       	ldd	r24, Y+3	; 0x03
     df4:	9c 81       	ldd	r25, Y+4	; 0x04
     df6:	82 15       	cp	r24, r2
     df8:	93 05       	cpc	r25, r3
     dfa:	39 f7       	brne	.-50     	; 0xdca <RGB_Brightness_Inc+0x7a>
     dfc:	20 2f       	mov	r18, r16
     dfe:	60 16       	cp	r6, r16
     e00:	71 06       	cpc	r7, r17
     e02:	08 f4       	brcc	.+2      	; 0xe06 <RGB_Brightness_Inc+0xb6>
     e04:	26 2d       	mov	r18, r6
     e06:	60 2f       	mov	r22, r16
     e08:	80 16       	cp	r8, r16
     e0a:	91 06       	cpc	r9, r17
     e0c:	08 f4       	brcc	.+2      	; 0xe10 <RGB_Brightness_Inc+0xc0>
     e0e:	68 2d       	mov	r22, r8
     e10:	40 2f       	mov	r20, r16
     e12:	a0 16       	cp	r10, r16
     e14:	b1 06       	cpc	r11, r17
     e16:	08 f4       	brcc	.+2      	; 0xe1a <RGB_Brightness_Inc+0xca>
     e18:	4a 2d       	mov	r20, r10
     e1a:	82 2f       	mov	r24, r18
     e1c:	0e 94 57 01 	call	0x2ae	; 0x2ae <WS2812B_Send_Pixel>
     e20:	5c 82       	std	Y+4, r5	; 0x04
     e22:	4b 82       	std	Y+3, r4	; 0x03
     e24:	0a c0       	rjmp	.+20     	; 0xe3a <RGB_Brightness_Inc+0xea>
     e26:	80 e0       	ldi	r24, 0x00	; 0
     e28:	60 e0       	ldi	r22, 0x00	; 0
     e2a:	40 e0       	ldi	r20, 0x00	; 0
     e2c:	0e 94 57 01 	call	0x2ae	; 0x2ae <WS2812B_Send_Pixel>
     e30:	eb 81       	ldd	r30, Y+3	; 0x03
     e32:	fc 81       	ldd	r31, Y+4	; 0x04
     e34:	31 96       	adiw	r30, 0x01	; 1
     e36:	fc 83       	std	Y+4, r31	; 0x04
     e38:	eb 83       	std	Y+3, r30	; 0x03
     e3a:	2b 81       	ldd	r18, Y+3	; 0x03
     e3c:	3c 81       	ldd	r19, Y+4	; 0x04
     e3e:	2e 31       	cpi	r18, 0x1E	; 30
     e40:	31 05       	cpc	r19, r1
     e42:	88 f3       	brcs	.-30     	; 0xe26 <RGB_Brightness_Inc+0xd6>
     e44:	8c e2       	ldi	r24, 0x2C	; 44
     e46:	91 e0       	ldi	r25, 0x01	; 1
     e48:	01 97       	sbiw	r24, 0x01	; 1
     e4a:	f1 f7       	brne	.-4      	; 0xe48 <RGB_Brightness_Inc+0xf8>
     e4c:	0f 5f       	subi	r16, 0xFF	; 255
     e4e:	1f 4f       	sbci	r17, 0xFF	; 255
     e50:	89 81       	ldd	r24, Y+1	; 0x01
     e52:	9a 81       	ldd	r25, Y+2	; 0x02
     e54:	08 17       	cp	r16, r24
     e56:	19 07       	cpc	r17, r25
     e58:	28 f4       	brcc	.+10     	; 0xe64 <RGB_Brightness_Inc+0x114>
     e5a:	e4 e4       	ldi	r30, 0x44	; 68
     e5c:	f1 e0       	ldi	r31, 0x01	; 1
     e5e:	fc 83       	std	Y+4, r31	; 0x04
     e60:	eb 83       	std	Y+3, r30	; 0x03
     e62:	c7 cf       	rjmp	.-114    	; 0xdf2 <RGB_Brightness_Inc+0xa2>
     e64:	0f 90       	pop	r0
     e66:	0f 90       	pop	r0
     e68:	0f 90       	pop	r0
     e6a:	0f 90       	pop	r0
     e6c:	cf 91       	pop	r28
     e6e:	df 91       	pop	r29
     e70:	1f 91       	pop	r17
     e72:	0f 91       	pop	r16
     e74:	ff 90       	pop	r15
     e76:	ef 90       	pop	r14
     e78:	df 90       	pop	r13
     e7a:	bf 90       	pop	r11
     e7c:	af 90       	pop	r10
     e7e:	9f 90       	pop	r9
     e80:	8f 90       	pop	r8
     e82:	7f 90       	pop	r7
     e84:	6f 90       	pop	r6
     e86:	5f 90       	pop	r5
     e88:	4f 90       	pop	r4
     e8a:	3f 90       	pop	r3
     e8c:	2f 90       	pop	r2
     e8e:	08 95       	ret

00000e90 <RGB_Animation_Slide_Fill>:
     e90:	cf 92       	push	r12
     e92:	df 92       	push	r13
     e94:	ef 92       	push	r14
     e96:	ff 92       	push	r15
     e98:	0f 93       	push	r16
     e9a:	1f 93       	push	r17
     e9c:	cf 93       	push	r28
     e9e:	df 93       	push	r29
     ea0:	d8 2e       	mov	r13, r24
     ea2:	e6 2e       	mov	r14, r22
     ea4:	f4 2e       	mov	r15, r20
     ea6:	09 e4       	ldi	r16, 0x49	; 73
     ea8:	11 e0       	ldi	r17, 0x01	; 1
     eaa:	c0 e0       	ldi	r28, 0x00	; 0
     eac:	d0 e0       	ldi	r29, 0x00	; 0
     eae:	cc 24       	eor	r12, r12
     eb0:	c3 94       	inc	r12
     eb2:	8d 2d       	mov	r24, r13
     eb4:	6e 2d       	mov	r22, r14
     eb6:	4f 2d       	mov	r20, r15
     eb8:	9e 01       	movw	r18, r28
     eba:	0e 94 a8 06 	call	0xd50	; 0xd50 <RGB_Brightness_Inc>
     ebe:	f8 01       	movw	r30, r16
     ec0:	c1 92       	st	Z+, r12
     ec2:	8f 01       	movw	r16, r30
     ec4:	21 96       	adiw	r28, 0x01	; 1
     ec6:	cd 31       	cpi	r28, 0x1D	; 29
     ec8:	d1 05       	cpc	r29, r1
     eca:	99 f7       	brne	.-26     	; 0xeb2 <RGB_Animation_Slide_Fill+0x22>
     ecc:	df 91       	pop	r29
     ece:	cf 91       	pop	r28
     ed0:	1f 91       	pop	r17
     ed2:	0f 91       	pop	r16
     ed4:	ff 90       	pop	r15
     ed6:	ef 90       	pop	r14
     ed8:	df 90       	pop	r13
     eda:	cf 90       	pop	r12
     edc:	08 95       	ret

00000ede <RGB_Animation_Clear_All_Pixels>:
     ede:	cf 93       	push	r28
     ee0:	df 93       	push	r29
     ee2:	c0 e0       	ldi	r28, 0x00	; 0
     ee4:	d0 e0       	ldi	r29, 0x00	; 0
     ee6:	80 e0       	ldi	r24, 0x00	; 0
     ee8:	60 e0       	ldi	r22, 0x00	; 0
     eea:	40 e0       	ldi	r20, 0x00	; 0
     eec:	0e 94 57 01 	call	0x2ae	; 0x2ae <WS2812B_Send_Pixel>
     ef0:	21 96       	adiw	r28, 0x01	; 1
     ef2:	81 e0       	ldi	r24, 0x01	; 1
     ef4:	cc 32       	cpi	r28, 0x2C	; 44
     ef6:	d8 07       	cpc	r29, r24
     ef8:	b1 f7       	brne	.-20     	; 0xee6 <RGB_Animation_Clear_All_Pixels+0x8>
     efa:	df 91       	pop	r29
     efc:	cf 91       	pop	r28
     efe:	08 95       	ret

00000f00 <RGB_Animation_Init>:
     f00:	8f ef       	ldi	r24, 0xFF	; 255
     f02:	80 93 36 01 	sts	0x0136, r24
     f06:	82 e0       	ldi	r24, 0x02	; 2
     f08:	80 93 39 01 	sts	0x0139, r24
     f0c:	80 93 3a 01 	sts	0x013A, r24
     f10:	80 93 3b 01 	sts	0x013B, r24
     f14:	88 ee       	ldi	r24, 0xE8	; 232
     f16:	93 e0       	ldi	r25, 0x03	; 3
     f18:	2c e2       	ldi	r18, 0x2C	; 44
     f1a:	31 e0       	ldi	r19, 0x01	; 1
     f1c:	f9 01       	movw	r30, r18
     f1e:	31 97       	sbiw	r30, 0x01	; 1
     f20:	f1 f7       	brne	.-4      	; 0xf1e <RGB_Animation_Init+0x1e>
		{
			// wait 1/10 ms
			_delay_loop_2(((F_CPU) / 4e3) / 10);
			__ticks --;
     f22:	01 97       	sbiw	r24, 0x01	; 1
		__ticks = 1;
	else if (__tmp > 65535)
	{
		//	__ticks = requested delay in 1/10 ms
		__ticks = (uint16_t) (__ms * 10.0);
		while(__ticks)
     f24:	d9 f7       	brne	.-10     	; 0xf1c <RGB_Animation_Init+0x1c>
     f26:	0e 94 6f 07 	call	0xede	; 0xede <RGB_Animation_Clear_All_Pixels>
     f2a:	88 ee       	ldi	r24, 0xE8	; 232
     f2c:	93 e0       	ldi	r25, 0x03	; 3
     f2e:	2c e2       	ldi	r18, 0x2C	; 44
     f30:	31 e0       	ldi	r19, 0x01	; 1
     f32:	f9 01       	movw	r30, r18
     f34:	31 97       	sbiw	r30, 0x01	; 1
     f36:	f1 f7       	brne	.-4      	; 0xf34 <RGB_Animation_Init+0x34>
		{
			// wait 1/10 ms
			_delay_loop_2(((F_CPU) / 4e3) / 10);
			__ticks --;
     f38:	01 97       	sbiw	r24, 0x01	; 1
		__ticks = 1;
	else if (__tmp > 65535)
	{
		//	__ticks = requested delay in 1/10 ms
		__ticks = (uint16_t) (__ms * 10.0);
		while(__ticks)
     f3a:	d9 f7       	brne	.-10     	; 0xf32 <RGB_Animation_Init+0x32>
     f3c:	e9 e4       	ldi	r30, 0x49	; 73
     f3e:	f1 e0       	ldi	r31, 0x01	; 1
     f40:	11 92       	st	Z+, r1
     f42:	81 e0       	ldi	r24, 0x01	; 1
     f44:	e6 36       	cpi	r30, 0x66	; 102
     f46:	f8 07       	cpc	r31, r24
     f48:	d9 f7       	brne	.-10     	; 0xf40 <RGB_Animation_Init+0x40>
     f4a:	08 95       	ret

00000f4c <debug_struct_init>:
     f4c:	10 92 dc 01 	sts	0x01DC, r1
     f50:	10 92 dd 01 	sts	0x01DD, r1
     f54:	81 e0       	ldi	r24, 0x01	; 1
     f56:	80 93 de 01 	sts	0x01DE, r24
     f5a:	80 e0       	ldi	r24, 0x00	; 0
     f5c:	90 e0       	ldi	r25, 0x00	; 0
     f5e:	fc 01       	movw	r30, r24
     f60:	e4 52       	subi	r30, 0x24	; 36
     f62:	fe 4f       	sbci	r31, 0xFE	; 254
     f64:	13 82       	std	Z+3, r1	; 0x03
     f66:	01 96       	adiw	r24, 0x01	; 1
     f68:	80 32       	cpi	r24, 0x20	; 32
     f6a:	91 05       	cpc	r25, r1
     f6c:	c1 f7       	brne	.-16     	; 0xf5e <debug_struct_init+0x12>
     f6e:	10 92 ff 01 	sts	0x01FF, r1
     f72:	e0 e0       	ldi	r30, 0x00	; 0
     f74:	f2 e0       	ldi	r31, 0x02	; 2
     f76:	11 92       	st	Z+, r1
     f78:	82 e0       	ldi	r24, 0x02	; 2
     f7a:	e8 30       	cpi	r30, 0x08	; 8
     f7c:	f8 07       	cpc	r31, r24
     f7e:	d9 f7       	brne	.-10     	; 0xf76 <debug_struct_init+0x2a>
     f80:	10 82       	st	Z, r1
     f82:	08 95       	ret

00000f84 <debug_timings_init>:
     f84:	14 bc       	out	0x24, r1	; 36
     f86:	15 bc       	out	0x25, r1	; 37
     f88:	10 92 6e 00 	sts	0x006E, r1
     f8c:	8f ef       	ldi	r24, 0xFF	; 255
     f8e:	85 bb       	out	0x15, r24	; 21
     f90:	e8 e6       	ldi	r30, 0x68	; 104
     f92:	f0 e0       	ldi	r31, 0x00	; 0
     f94:	80 81       	ld	r24, Z
     f96:	82 60       	ori	r24, 0x02	; 2
     f98:	80 83       	st	Z, r24
     f9a:	ec e6       	ldi	r30, 0x6C	; 108
     f9c:	f0 e0       	ldi	r31, 0x00	; 0
     f9e:	80 81       	ld	r24, Z
     fa0:	80 64       	ori	r24, 0x40	; 64
     fa2:	80 83       	st	Z, r24
     fa4:	d9 9a       	sbi	0x1b, 1	; 27
     fa6:	78 94       	sei
     fa8:	08 95       	ret

00000faa <debug_timer_start>:
     faa:	8f ef       	ldi	r24, 0xFF	; 255
     fac:	85 bb       	out	0x15, r24	; 21
     fae:	ee e6       	ldi	r30, 0x6E	; 110
     fb0:	f0 e0       	ldi	r31, 0x00	; 0
     fb2:	10 82       	st	Z, r1
     fb4:	88 ec       	ldi	r24, 0xC8	; 200
     fb6:	86 bd       	out	0x26, r24	; 38
     fb8:	84 e0       	ldi	r24, 0x04	; 4
     fba:	85 bd       	out	0x25, r24	; 37
     fbc:	81 e0       	ldi	r24, 0x01	; 1
     fbe:	85 bb       	out	0x15, r24	; 21
     fc0:	80 83       	st	Z, r24
     fc2:	08 95       	ret

00000fc4 <debug_timer_stop>:
     fc4:	10 92 6e 00 	sts	0x006E, r1
     fc8:	15 bc       	out	0x25, r1	; 37
     fca:	16 bc       	out	0x26, r1	; 38
     fcc:	08 95       	ret

00000fce <debug_gpio_init>:
     fce:	54 9a       	sbi	0x0a, 4	; 10
     fd0:	5c 9a       	sbi	0x0b, 4	; 11
     fd2:	3e 98       	cbi	0x07, 6	; 7
     fd4:	46 9a       	sbi	0x08, 6	; 8
     fd6:	08 95       	ret

00000fd8 <debug_tx_high>:
     fd8:	5c 9a       	sbi	0x0b, 4	; 11
     fda:	08 95       	ret

00000fdc <debug_tx_low>:
     fdc:	5c 98       	cbi	0x0b, 4	; 11
     fde:	08 95       	ret

00000fe0 <debug_tx_set>:
     fe0:	81 30       	cpi	r24, 0x01	; 1
     fe2:	11 f4       	brne	.+4      	; 0xfe8 <debug_tx_set+0x8>
     fe4:	5c 9a       	sbi	0x0b, 4	; 11
     fe6:	08 95       	ret
     fe8:	5c 98       	cbi	0x0b, 4	; 11
     fea:	08 95       	ret

00000fec <debug_rx_get>:
     fec:	86 b1       	in	r24, 0x06	; 6
     fee:	90 e0       	ldi	r25, 0x00	; 0
     ff0:	26 e0       	ldi	r18, 0x06	; 6
     ff2:	96 95       	lsr	r25
     ff4:	87 95       	ror	r24
     ff6:	2a 95       	dec	r18
     ff8:	e1 f7       	brne	.-8      	; 0xff2 <debug_rx_get+0x6>
     ffa:	81 70       	andi	r24, 0x01	; 1
     ffc:	08 95       	ret

00000ffe <debug_delay>:
     ffe:	9c 01       	movw	r18, r24
    1000:	16 bc       	out	0x26, r1	; 38
    1002:	81 e0       	ldi	r24, 0x01	; 1
    1004:	85 bd       	out	0x25, r24	; 37
    1006:	86 b5       	in	r24, 0x26	; 38
    1008:	82 33       	cpi	r24, 0x32	; 50
    100a:	e8 f3       	brcs	.-6      	; 0x1006 <debug_delay+0x8>
    100c:	16 bc       	out	0x26, r1	; 38
    100e:	86 b5       	in	r24, 0x26	; 38
    1010:	90 e0       	ldi	r25, 0x00	; 0
    1012:	82 17       	cp	r24, r18
    1014:	93 07       	cpc	r25, r19
    1016:	d8 f3       	brcs	.-10     	; 0x100e <debug_delay+0x10>
    1018:	15 bc       	out	0x25, r1	; 37
    101a:	08 95       	ret

0000101c <debug_delay_index_0>:
    101c:	80 91 2c 01 	lds	r24, 0x012C
    1020:	90 91 2d 01 	lds	r25, 0x012D
    1024:	0e 94 ff 07 	call	0xffe	; 0xffe <debug_delay>
    1028:	08 95       	ret

0000102a <debug_delay_index_1>:
    102a:	80 91 2e 01 	lds	r24, 0x012E
    102e:	90 91 2f 01 	lds	r25, 0x012F
    1032:	0e 94 ff 07 	call	0xffe	; 0xffe <debug_delay>
    1036:	08 95       	ret

00001038 <debug_delay_index_2>:
    1038:	80 91 30 01 	lds	r24, 0x0130
    103c:	90 91 31 01 	lds	r25, 0x0131
    1040:	0e 94 ff 07 	call	0xffe	; 0xffe <debug_delay>
    1044:	08 95       	ret

00001046 <debug_tx_byte>:
    1046:	df 92       	push	r13
    1048:	ef 92       	push	r14
    104a:	ff 92       	push	r15
    104c:	0f 93       	push	r16
    104e:	1f 93       	push	r17
    1050:	df 93       	push	r29
    1052:	cf 93       	push	r28
    1054:	cd b7       	in	r28, 0x3d	; 61
    1056:	de b7       	in	r29, 0x3e	; 62
    1058:	2a 97       	sbiw	r28, 0x0a	; 10
    105a:	0f b6       	in	r0, 0x3f	; 63
    105c:	f8 94       	cli
    105e:	de bf       	out	0x3e, r29	; 62
    1060:	0f be       	out	0x3f, r0	; 63
    1062:	cd bf       	out	0x3d, r28	; 61
    1064:	fe 01       	movw	r30, r28
    1066:	31 96       	adiw	r30, 0x01	; 1
    1068:	9a e0       	ldi	r25, 0x0A	; 10
    106a:	df 01       	movw	r26, r30
    106c:	1d 92       	st	X+, r1
    106e:	9a 95       	dec	r25
    1070:	e9 f7       	brne	.-6      	; 0x106c <debug_tx_byte+0x26>
    1072:	91 e0       	ldi	r25, 0x01	; 1
    1074:	9a 87       	std	Y+10, r25	; 0x0a
    1076:	fe 01       	movw	r30, r28
    1078:	32 96       	adiw	r30, 0x02	; 2
    107a:	20 e0       	ldi	r18, 0x00	; 0
    107c:	30 e0       	ldi	r19, 0x00	; 0
    107e:	48 2f       	mov	r20, r24
    1080:	50 e0       	ldi	r21, 0x00	; 0
    1082:	61 e0       	ldi	r22, 0x01	; 1
    1084:	ca 01       	movw	r24, r20
    1086:	02 2e       	mov	r0, r18
    1088:	02 c0       	rjmp	.+4      	; 0x108e <debug_tx_byte+0x48>
    108a:	95 95       	asr	r25
    108c:	87 95       	ror	r24
    108e:	0a 94       	dec	r0
    1090:	e2 f7       	brpl	.-8      	; 0x108a <debug_tx_byte+0x44>
    1092:	80 ff       	sbrs	r24, 0
    1094:	02 c0       	rjmp	.+4      	; 0x109a <debug_tx_byte+0x54>
    1096:	60 83       	st	Z, r22
    1098:	01 c0       	rjmp	.+2      	; 0x109c <debug_tx_byte+0x56>
    109a:	10 82       	st	Z, r1
    109c:	2f 5f       	subi	r18, 0xFF	; 255
    109e:	3f 4f       	sbci	r19, 0xFF	; 255
    10a0:	31 96       	adiw	r30, 0x01	; 1
    10a2:	28 30       	cpi	r18, 0x08	; 8
    10a4:	31 05       	cpc	r19, r1
    10a6:	71 f7       	brne	.-36     	; 0x1084 <debug_tx_byte+0x3e>
    10a8:	df b6       	in	r13, 0x3f	; 63
    10aa:	f8 94       	cli
    10ac:	8e 01       	movw	r16, r28
    10ae:	0f 5f       	subi	r16, 0xFF	; 255
    10b0:	1f 4f       	sbci	r17, 0xFF	; 255
    10b2:	3b e0       	ldi	r19, 0x0B	; 11
    10b4:	e3 2e       	mov	r14, r19
    10b6:	f1 2c       	mov	r15, r1
    10b8:	ec 0e       	add	r14, r28
    10ba:	fd 1e       	adc	r15, r29
    10bc:	f8 01       	movw	r30, r16
    10be:	80 81       	ld	r24, Z
    10c0:	81 30       	cpi	r24, 0x01	; 1
    10c2:	11 f4       	brne	.+4      	; 0x10c8 <debug_tx_byte+0x82>
    10c4:	5c 9a       	sbi	0x0b, 4	; 11
    10c6:	01 c0       	rjmp	.+2      	; 0x10ca <debug_tx_byte+0x84>
    10c8:	5c 98       	cbi	0x0b, 4	; 11
    10ca:	0e 94 0e 08 	call	0x101c	; 0x101c <debug_delay_index_0>
    10ce:	0f 5f       	subi	r16, 0xFF	; 255
    10d0:	1f 4f       	sbci	r17, 0xFF	; 255
    10d2:	0e 15       	cp	r16, r14
    10d4:	1f 05       	cpc	r17, r15
    10d6:	91 f7       	brne	.-28     	; 0x10bc <debug_tx_byte+0x76>
    10d8:	df be       	out	0x3f, r13	; 63
    10da:	2a 96       	adiw	r28, 0x0a	; 10
    10dc:	0f b6       	in	r0, 0x3f	; 63
    10de:	f8 94       	cli
    10e0:	de bf       	out	0x3e, r29	; 62
    10e2:	0f be       	out	0x3f, r0	; 63
    10e4:	cd bf       	out	0x3d, r28	; 61
    10e6:	cf 91       	pop	r28
    10e8:	df 91       	pop	r29
    10ea:	1f 91       	pop	r17
    10ec:	0f 91       	pop	r16
    10ee:	ff 90       	pop	r15
    10f0:	ef 90       	pop	r14
    10f2:	df 90       	pop	r13
    10f4:	08 95       	ret

000010f6 <debug_rx_byte>:
    10f6:	ff 92       	push	r15
    10f8:	0f 93       	push	r16
    10fa:	1f 93       	push	r17
    10fc:	36 9b       	sbis	0x06, 6	; 6
    10fe:	21 c0       	rjmp	.+66     	; 0x1142 <debug_rx_byte+0x4c>
    1100:	82 e0       	ldi	r24, 0x02	; 2
    1102:	17 c0       	rjmp	.+46     	; 0x1132 <debug_rx_byte+0x3c>
    1104:	0e 94 15 08 	call	0x102a	; 0x102a <debug_delay_index_1>
    1108:	36 99       	sbic	0x06, 6	; 6
    110a:	00 68       	ori	r16, 0x80	; 128
    110c:	17 30       	cpi	r17, 0x07	; 7
    110e:	09 f0       	breq	.+2      	; 0x1112 <debug_rx_byte+0x1c>
    1110:	06 95       	lsr	r16
    1112:	1f 5f       	subi	r17, 0xFF	; 255
    1114:	18 30       	cpi	r17, 0x08	; 8
    1116:	b1 f7       	brne	.-20     	; 0x1104 <debug_rx_byte+0xe>
    1118:	0e 94 15 08 	call	0x102a	; 0x102a <debug_delay_index_1>
    111c:	86 b1       	in	r24, 0x06	; 6
    111e:	f6 fc       	sbrc	r15, 6
    1120:	07 c0       	rjmp	.+14     	; 0x1130 <debug_rx_byte+0x3a>
    1122:	86 ff       	sbrs	r24, 6
    1124:	05 c0       	rjmp	.+10     	; 0x1130 <debug_rx_byte+0x3a>
    1126:	00 93 dd 01 	sts	0x01DD, r16
    112a:	10 92 dc 01 	sts	0x01DC, r1
    112e:	03 c0       	rjmp	.+6      	; 0x1136 <debug_rx_byte+0x40>
    1130:	81 e0       	ldi	r24, 0x01	; 1
    1132:	80 93 dc 01 	sts	0x01DC, r24
    1136:	80 91 dd 01 	lds	r24, 0x01DD
    113a:	1f 91       	pop	r17
    113c:	0f 91       	pop	r16
    113e:	ff 90       	pop	r15
    1140:	08 95       	ret
    1142:	0e 94 1c 08 	call	0x1038	; 0x1038 <debug_delay_index_2>
    1146:	f6 b0       	in	r15, 0x06	; 6
    1148:	00 e0       	ldi	r16, 0x00	; 0
    114a:	10 e0       	ldi	r17, 0x00	; 0
    114c:	db cf       	rjmp	.-74     	; 0x1104 <debug_rx_byte+0xe>

0000114e <debug_rx_byte_get>:
    114e:	80 91 dd 01 	lds	r24, 0x01DD
    1152:	08 95       	ret

00001154 <debug_rx_byte_clear>:
    1154:	10 92 dd 01 	sts	0x01DD, r1
    1158:	08 95       	ret

0000115a <debug_rx_byte_set>:
    115a:	80 93 dd 01 	sts	0x01DD, r24
    115e:	08 95       	ret

00001160 <debug_tx_hex>:
    1160:	bf 92       	push	r11
    1162:	cf 92       	push	r12
    1164:	df 92       	push	r13
    1166:	ef 92       	push	r14
    1168:	ff 92       	push	r15
    116a:	0f 93       	push	r16
    116c:	1f 93       	push	r17
    116e:	cf 93       	push	r28
    1170:	df 93       	push	r29
    1172:	7b 01       	movw	r14, r22
    1174:	8c 01       	movw	r16, r24
    1176:	8f ef       	ldi	r24, 0xFF	; 255
    1178:	e8 16       	cp	r14, r24
    117a:	f1 04       	cpc	r15, r1
    117c:	01 05       	cpc	r16, r1
    117e:	11 05       	cpc	r17, r1
    1180:	09 f0       	breq	.+2      	; 0x1184 <debug_tx_hex+0x24>
    1182:	30 f4       	brcc	.+12     	; 0x1190 <debug_tx_hex+0x30>
    1184:	c8 e0       	ldi	r28, 0x08	; 8
    1186:	d0 e0       	ldi	r29, 0x00	; 0
    1188:	62 e0       	ldi	r22, 0x02	; 2
    118a:	c6 2e       	mov	r12, r22
    118c:	d1 2c       	mov	r13, r1
    118e:	14 c0       	rjmp	.+40     	; 0x11b8 <debug_tx_hex+0x58>
    1190:	80 e0       	ldi	r24, 0x00	; 0
    1192:	e8 16       	cp	r14, r24
    1194:	80 e0       	ldi	r24, 0x00	; 0
    1196:	f8 06       	cpc	r15, r24
    1198:	81 e0       	ldi	r24, 0x01	; 1
    119a:	08 07       	cpc	r16, r24
    119c:	80 e0       	ldi	r24, 0x00	; 0
    119e:	18 07       	cpc	r17, r24
    11a0:	30 f0       	brcs	.+12     	; 0x11ae <debug_tx_hex+0x4e>
    11a2:	c0 e2       	ldi	r28, 0x20	; 32
    11a4:	d0 e0       	ldi	r29, 0x00	; 0
    11a6:	58 e0       	ldi	r21, 0x08	; 8
    11a8:	c5 2e       	mov	r12, r21
    11aa:	d1 2c       	mov	r13, r1
    11ac:	05 c0       	rjmp	.+10     	; 0x11b8 <debug_tx_hex+0x58>
    11ae:	c0 e1       	ldi	r28, 0x10	; 16
    11b0:	d0 e0       	ldi	r29, 0x00	; 0
    11b2:	44 e0       	ldi	r20, 0x04	; 4
    11b4:	c4 2e       	mov	r12, r20
    11b6:	d1 2c       	mov	r13, r1
    11b8:	80 e3       	ldi	r24, 0x30	; 48
    11ba:	0e 94 23 08 	call	0x1046	; 0x1046 <debug_tx_byte>
    11be:	88 e7       	ldi	r24, 0x78	; 120
    11c0:	0e 94 23 08 	call	0x1046	; 0x1046 <debug_tx_byte>
    11c4:	bb 24       	eor	r11, r11
    11c6:	17 c0       	rjmp	.+46     	; 0x11f6 <debug_tx_hex+0x96>
    11c8:	24 97       	sbiw	r28, 0x04	; 4
    11ca:	d8 01       	movw	r26, r16
    11cc:	c7 01       	movw	r24, r14
    11ce:	0c 2e       	mov	r0, r28
    11d0:	04 c0       	rjmp	.+8      	; 0x11da <debug_tx_hex+0x7a>
    11d2:	b6 95       	lsr	r27
    11d4:	a7 95       	ror	r26
    11d6:	97 95       	ror	r25
    11d8:	87 95       	ror	r24
    11da:	0a 94       	dec	r0
    11dc:	d2 f7       	brpl	.-12     	; 0x11d2 <debug_tx_hex+0x72>
    11de:	90 e0       	ldi	r25, 0x00	; 0
    11e0:	8f 70       	andi	r24, 0x0F	; 15
    11e2:	90 70       	andi	r25, 0x00	; 0
    11e4:	8a 30       	cpi	r24, 0x0A	; 10
    11e6:	91 05       	cpc	r25, r1
    11e8:	10 f0       	brcs	.+4      	; 0x11ee <debug_tx_hex+0x8e>
    11ea:	c7 96       	adiw	r24, 0x37	; 55
    11ec:	01 c0       	rjmp	.+2      	; 0x11f0 <debug_tx_hex+0x90>
    11ee:	c0 96       	adiw	r24, 0x30	; 48
    11f0:	0e 94 23 08 	call	0x1046	; 0x1046 <debug_tx_byte>
    11f4:	b3 94       	inc	r11
    11f6:	8b 2d       	mov	r24, r11
    11f8:	90 e0       	ldi	r25, 0x00	; 0
    11fa:	8c 15       	cp	r24, r12
    11fc:	9d 05       	cpc	r25, r13
    11fe:	20 f3       	brcs	.-56     	; 0x11c8 <debug_tx_hex+0x68>
    1200:	df 91       	pop	r29
    1202:	cf 91       	pop	r28
    1204:	1f 91       	pop	r17
    1206:	0f 91       	pop	r16
    1208:	ff 90       	pop	r15
    120a:	ef 90       	pop	r14
    120c:	df 90       	pop	r13
    120e:	cf 90       	pop	r12
    1210:	bf 90       	pop	r11
    1212:	08 95       	ret

00001214 <debug_tx_bin>:
    1214:	af 92       	push	r10
    1216:	bf 92       	push	r11
    1218:	cf 92       	push	r12
    121a:	df 92       	push	r13
    121c:	ef 92       	push	r14
    121e:	ff 92       	push	r15
    1220:	0f 93       	push	r16
    1222:	1f 93       	push	r17
    1224:	cf 93       	push	r28
    1226:	df 93       	push	r29
    1228:	7b 01       	movw	r14, r22
    122a:	8c 01       	movw	r16, r24
    122c:	6f 3f       	cpi	r22, 0xFF	; 255
    122e:	71 05       	cpc	r23, r1
    1230:	81 05       	cpc	r24, r1
    1232:	91 05       	cpc	r25, r1
    1234:	09 f0       	breq	.+2      	; 0x1238 <debug_tx_bin+0x24>
    1236:	18 f4       	brcc	.+6      	; 0x123e <debug_tx_bin+0x2a>
    1238:	f7 e0       	ldi	r31, 0x07	; 7
    123a:	df 2e       	mov	r13, r31
    123c:	0d c0       	rjmp	.+26     	; 0x1258 <debug_tx_bin+0x44>
    123e:	60 30       	cpi	r22, 0x00	; 0
    1240:	30 e0       	ldi	r19, 0x00	; 0
    1242:	73 07       	cpc	r23, r19
    1244:	31 e0       	ldi	r19, 0x01	; 1
    1246:	83 07       	cpc	r24, r19
    1248:	30 e0       	ldi	r19, 0x00	; 0
    124a:	93 07       	cpc	r25, r19
    124c:	18 f0       	brcs	.+6      	; 0x1254 <debug_tx_bin+0x40>
    124e:	ef e1       	ldi	r30, 0x1F	; 31
    1250:	de 2e       	mov	r13, r30
    1252:	02 c0       	rjmp	.+4      	; 0x1258 <debug_tx_bin+0x44>
    1254:	7f e0       	ldi	r23, 0x0F	; 15
    1256:	d7 2e       	mov	r13, r23
    1258:	80 e3       	ldi	r24, 0x30	; 48
    125a:	0e 94 23 08 	call	0x1046	; 0x1046 <debug_tx_byte>
    125e:	82 e6       	ldi	r24, 0x62	; 98
    1260:	0e 94 23 08 	call	0x1046	; 0x1046 <debug_tx_byte>
    1264:	c0 e0       	ldi	r28, 0x00	; 0
    1266:	d0 e0       	ldi	r29, 0x00	; 0
    1268:	cd 2c       	mov	r12, r13
    126a:	dd 24       	eor	r13, r13
    126c:	56 01       	movw	r10, r12
    126e:	08 94       	sec
    1270:	a1 1c       	adc	r10, r1
    1272:	b1 1c       	adc	r11, r1
    1274:	c6 01       	movw	r24, r12
    1276:	8c 1b       	sub	r24, r28
    1278:	9d 0b       	sbc	r25, r29
    127a:	a8 01       	movw	r20, r16
    127c:	97 01       	movw	r18, r14
    127e:	04 c0       	rjmp	.+8      	; 0x1288 <debug_tx_bin+0x74>
    1280:	56 95       	lsr	r21
    1282:	47 95       	ror	r20
    1284:	37 95       	ror	r19
    1286:	27 95       	ror	r18
    1288:	8a 95       	dec	r24
    128a:	d2 f7       	brpl	.-12     	; 0x1280 <debug_tx_bin+0x6c>
    128c:	da 01       	movw	r26, r20
    128e:	c9 01       	movw	r24, r18
    1290:	81 70       	andi	r24, 0x01	; 1
    1292:	90 70       	andi	r25, 0x00	; 0
    1294:	89 2b       	or	r24, r25
    1296:	11 f0       	breq	.+4      	; 0x129c <debug_tx_bin+0x88>
    1298:	81 e3       	ldi	r24, 0x31	; 49
    129a:	01 c0       	rjmp	.+2      	; 0x129e <debug_tx_bin+0x8a>
    129c:	80 e3       	ldi	r24, 0x30	; 48
    129e:	0e 94 23 08 	call	0x1046	; 0x1046 <debug_tx_byte>
    12a2:	21 96       	adiw	r28, 0x01	; 1
    12a4:	ca 15       	cp	r28, r10
    12a6:	db 05       	cpc	r29, r11
    12a8:	29 f7       	brne	.-54     	; 0x1274 <debug_tx_bin+0x60>
    12aa:	df 91       	pop	r29
    12ac:	cf 91       	pop	r28
    12ae:	1f 91       	pop	r17
    12b0:	0f 91       	pop	r16
    12b2:	ff 90       	pop	r15
    12b4:	ef 90       	pop	r14
    12b6:	df 90       	pop	r13
    12b8:	cf 90       	pop	r12
    12ba:	bf 90       	pop	r11
    12bc:	af 90       	pop	r10
    12be:	08 95       	ret

000012c0 <debug_tx_nl>:
    12c0:	8d e0       	ldi	r24, 0x0D	; 13
    12c2:	0e 94 23 08 	call	0x1046	; 0x1046 <debug_tx_byte>
    12c6:	8a e0       	ldi	r24, 0x0A	; 10
    12c8:	0e 94 23 08 	call	0x1046	; 0x1046 <debug_tx_byte>
    12cc:	08 95       	ret

000012ce <debug_tx_sp>:
    12ce:	80 e2       	ldi	r24, 0x20	; 32
    12d0:	0e 94 23 08 	call	0x1046	; 0x1046 <debug_tx_byte>
    12d4:	08 95       	ret

000012d6 <debug_tx_cm>:
    12d6:	8c e2       	ldi	r24, 0x2C	; 44
    12d8:	0e 94 23 08 	call	0x1046	; 0x1046 <debug_tx_byte>
    12dc:	08 95       	ret

000012de <debug_tx_text>:
    12de:	1f 93       	push	r17
    12e0:	cf 93       	push	r28
    12e2:	df 93       	push	r29
    12e4:	ec 01       	movw	r28, r24
    12e6:	10 e0       	ldi	r17, 0x00	; 0
    12e8:	03 c0       	rjmp	.+6      	; 0x12f0 <debug_tx_text+0x12>
    12ea:	0e 94 23 08 	call	0x1046	; 0x1046 <debug_tx_byte>
    12ee:	1f 5f       	subi	r17, 0xFF	; 255
    12f0:	fe 01       	movw	r30, r28
    12f2:	e1 0f       	add	r30, r17
    12f4:	f1 1d       	adc	r31, r1
    12f6:	80 81       	ld	r24, Z
    12f8:	88 23       	and	r24, r24
    12fa:	b9 f7       	brne	.-18     	; 0x12ea <debug_tx_text+0xc>
    12fc:	df 91       	pop	r29
    12fe:	cf 91       	pop	r28
    1300:	1f 91       	pop	r17
    1302:	08 95       	ret

00001304 <debug_tx_text_nl>:
    1304:	0e 94 6f 09 	call	0x12de	; 0x12de <debug_tx_text>
    1308:	0e 94 60 09 	call	0x12c0	; 0x12c0 <debug_tx_nl>
    130c:	08 95       	ret

0000130e <debug_tx_text_sp>:
    130e:	0e 94 6f 09 	call	0x12de	; 0x12de <debug_tx_text>
    1312:	0e 94 67 09 	call	0x12ce	; 0x12ce <debug_tx_sp>
    1316:	08 95       	ret

00001318 <debug_tx_text_cm>:
    1318:	0e 94 6f 09 	call	0x12de	; 0x12de <debug_tx_text>
    131c:	0e 94 6b 09 	call	0x12d6	; 0x12d6 <debug_tx_cm>
    1320:	08 95       	ret

00001322 <debug_determine_digit_numbers>:
    1322:	bf 92       	push	r11
    1324:	cf 92       	push	r12
    1326:	df 92       	push	r13
    1328:	ef 92       	push	r14
    132a:	ff 92       	push	r15
    132c:	0f 93       	push	r16
    132e:	1f 93       	push	r17
    1330:	6b 01       	movw	r12, r22
    1332:	7c 01       	movw	r14, r24
    1334:	61 15       	cp	r22, r1
    1336:	71 05       	cpc	r23, r1
    1338:	81 05       	cpc	r24, r1
    133a:	91 05       	cpc	r25, r1
    133c:	31 f4       	brne	.+12     	; 0x134a <debug_determine_digit_numbers+0x28>
    133e:	10 92 00 02 	sts	0x0200, r1
    1342:	81 e0       	ldi	r24, 0x01	; 1
    1344:	80 93 08 02 	sts	0x0208, r24
    1348:	23 c0       	rjmp	.+70     	; 0x1390 <debug_determine_digit_numbers+0x6e>
    134a:	bb 24       	eor	r11, r11
    134c:	0b 2d       	mov	r16, r11
    134e:	10 e0       	ldi	r17, 0x00	; 0
    1350:	04 52       	subi	r16, 0x24	; 36
    1352:	1e 4f       	sbci	r17, 0xFE	; 254
    1354:	c7 01       	movw	r24, r14
    1356:	b6 01       	movw	r22, r12
    1358:	2a e0       	ldi	r18, 0x0A	; 10
    135a:	30 e0       	ldi	r19, 0x00	; 0
    135c:	40 e0       	ldi	r20, 0x00	; 0
    135e:	50 e0       	ldi	r21, 0x00	; 0
    1360:	0e 94 6b 0b 	call	0x16d6	; 0x16d6 <__udivmodsi4>
    1364:	f8 01       	movw	r30, r16
    1366:	64 a3       	std	Z+36, r22	; 0x24
    1368:	c7 01       	movw	r24, r14
    136a:	b6 01       	movw	r22, r12
    136c:	2a e0       	ldi	r18, 0x0A	; 10
    136e:	30 e0       	ldi	r19, 0x00	; 0
    1370:	40 e0       	ldi	r20, 0x00	; 0
    1372:	50 e0       	ldi	r21, 0x00	; 0
    1374:	0e 94 6b 0b 	call	0x16d6	; 0x16d6 <__udivmodsi4>
    1378:	c9 01       	movw	r24, r18
    137a:	da 01       	movw	r26, r20
    137c:	6c 01       	movw	r12, r24
    137e:	7d 01       	movw	r14, r26
    1380:	b3 94       	inc	r11
    1382:	c1 14       	cp	r12, r1
    1384:	d1 04       	cpc	r13, r1
    1386:	e1 04       	cpc	r14, r1
    1388:	f1 04       	cpc	r15, r1
    138a:	01 f7       	brne	.-64     	; 0x134c <debug_determine_digit_numbers+0x2a>
    138c:	b0 92 08 02 	sts	0x0208, r11
    1390:	1f 91       	pop	r17
    1392:	0f 91       	pop	r16
    1394:	ff 90       	pop	r15
    1396:	ef 90       	pop	r14
    1398:	df 90       	pop	r13
    139a:	cf 90       	pop	r12
    139c:	bf 90       	pop	r11
    139e:	08 95       	ret

000013a0 <debug_tx_number_digits>:
    13a0:	1f 93       	push	r17
    13a2:	10 91 08 02 	lds	r17, 0x0208
    13a6:	09 c0       	rjmp	.+18     	; 0x13ba <debug_tx_number_digits+0x1a>
    13a8:	11 50       	subi	r17, 0x01	; 1
    13aa:	e1 2f       	mov	r30, r17
    13ac:	f0 e0       	ldi	r31, 0x00	; 0
    13ae:	e4 52       	subi	r30, 0x24	; 36
    13b0:	fe 4f       	sbci	r31, 0xFE	; 254
    13b2:	84 a1       	ldd	r24, Z+36	; 0x24
    13b4:	80 5d       	subi	r24, 0xD0	; 208
    13b6:	0e 94 23 08 	call	0x1046	; 0x1046 <debug_tx_byte>
    13ba:	11 23       	and	r17, r17
    13bc:	a9 f7       	brne	.-22     	; 0x13a8 <debug_tx_number_digits+0x8>
    13be:	1f 91       	pop	r17
    13c0:	08 95       	ret

000013c2 <debug_tx_number>:
    13c2:	ef 92       	push	r14
    13c4:	ff 92       	push	r15
    13c6:	0f 93       	push	r16
    13c8:	1f 93       	push	r17
    13ca:	7b 01       	movw	r14, r22
    13cc:	8c 01       	movw	r16, r24
    13ce:	97 ff       	sbrs	r25, 7
    13d0:	0b c0       	rjmp	.+22     	; 0x13e8 <debug_tx_number+0x26>
    13d2:	8d e2       	ldi	r24, 0x2D	; 45
    13d4:	0e 94 23 08 	call	0x1046	; 0x1046 <debug_tx_byte>
    13d8:	10 95       	com	r17
    13da:	00 95       	com	r16
    13dc:	f0 94       	com	r15
    13de:	e0 94       	com	r14
    13e0:	e1 1c       	adc	r14, r1
    13e2:	f1 1c       	adc	r15, r1
    13e4:	01 1d       	adc	r16, r1
    13e6:	11 1d       	adc	r17, r1
    13e8:	c8 01       	movw	r24, r16
    13ea:	b7 01       	movw	r22, r14
    13ec:	0e 94 91 09 	call	0x1322	; 0x1322 <debug_determine_digit_numbers>
    13f0:	0e 94 d0 09 	call	0x13a0	; 0x13a0 <debug_tx_number_digits>
    13f4:	1f 91       	pop	r17
    13f6:	0f 91       	pop	r16
    13f8:	ff 90       	pop	r15
    13fa:	ef 90       	pop	r14
    13fc:	08 95       	ret

000013fe <debug_tx_number_nl>:
    13fe:	0e 94 e1 09 	call	0x13c2	; 0x13c2 <debug_tx_number>
    1402:	0e 94 60 09 	call	0x12c0	; 0x12c0 <debug_tx_nl>
    1406:	08 95       	ret

00001408 <debug_tx_number_sp>:
    1408:	0e 94 e1 09 	call	0x13c2	; 0x13c2 <debug_tx_number>
    140c:	0e 94 67 09 	call	0x12ce	; 0x12ce <debug_tx_sp>
    1410:	08 95       	ret

00001412 <debug_tx_number_cm>:
    1412:	0e 94 e1 09 	call	0x13c2	; 0x13c2 <debug_tx_number>
    1416:	8e e1       	ldi	r24, 0x1E	; 30
    1418:	91 e0       	ldi	r25, 0x01	; 1
    141a:	0e 94 6f 09 	call	0x12de	; 0x12de <debug_tx_text>
    141e:	08 95       	ret

00001420 <debug_tx_number_hex_nl>:
    1420:	0e 94 b0 08 	call	0x1160	; 0x1160 <debug_tx_hex>
    1424:	0e 94 60 09 	call	0x12c0	; 0x12c0 <debug_tx_nl>
    1428:	08 95       	ret

0000142a <debug_tx_number_hex_sp>:
    142a:	0e 94 b0 08 	call	0x1160	; 0x1160 <debug_tx_hex>
    142e:	0e 94 67 09 	call	0x12ce	; 0x12ce <debug_tx_sp>
    1432:	08 95       	ret

00001434 <debug_tx_number_hex_cm>:
    1434:	0e 94 b0 08 	call	0x1160	; 0x1160 <debug_tx_hex>
    1438:	8e e1       	ldi	r24, 0x1E	; 30
    143a:	91 e0       	ldi	r25, 0x01	; 1
    143c:	0e 94 6f 09 	call	0x12de	; 0x12de <debug_tx_text>
    1440:	08 95       	ret

00001442 <debug_tx_number_bin_nl>:
    1442:	0e 94 0a 09 	call	0x1214	; 0x1214 <debug_tx_bin>
    1446:	0e 94 60 09 	call	0x12c0	; 0x12c0 <debug_tx_nl>
    144a:	08 95       	ret

0000144c <debug_tx_number_bin_sp>:
    144c:	0e 94 0a 09 	call	0x1214	; 0x1214 <debug_tx_bin>
    1450:	0e 94 67 09 	call	0x12ce	; 0x12ce <debug_tx_sp>
    1454:	08 95       	ret

00001456 <debug_tx_number_bin_cm>:
    1456:	0e 94 0a 09 	call	0x1214	; 0x1214 <debug_tx_bin>
    145a:	8e e1       	ldi	r24, 0x1E	; 30
    145c:	91 e0       	ldi	r25, 0x01	; 1
    145e:	0e 94 6f 09 	call	0x12de	; 0x12de <debug_tx_text>
    1462:	08 95       	ret

00001464 <debug_tx_parameter_nl>:
    1464:	ef 92       	push	r14
    1466:	ff 92       	push	r15
    1468:	0f 93       	push	r16
    146a:	1f 93       	push	r17
    146c:	7a 01       	movw	r14, r20
    146e:	8b 01       	movw	r16, r22
    1470:	0e 94 6f 09 	call	0x12de	; 0x12de <debug_tx_text>
    1474:	0e 94 67 09 	call	0x12ce	; 0x12ce <debug_tx_sp>
    1478:	c8 01       	movw	r24, r16
    147a:	b7 01       	movw	r22, r14
    147c:	0e 94 ff 09 	call	0x13fe	; 0x13fe <debug_tx_number_nl>
    1480:	1f 91       	pop	r17
    1482:	0f 91       	pop	r16
    1484:	ff 90       	pop	r15
    1486:	ef 90       	pop	r14
    1488:	08 95       	ret

0000148a <debug_tx_parameter_sp>:
    148a:	ef 92       	push	r14
    148c:	ff 92       	push	r15
    148e:	0f 93       	push	r16
    1490:	1f 93       	push	r17
    1492:	7a 01       	movw	r14, r20
    1494:	8b 01       	movw	r16, r22
    1496:	0e 94 6f 09 	call	0x12de	; 0x12de <debug_tx_text>
    149a:	0e 94 67 09 	call	0x12ce	; 0x12ce <debug_tx_sp>
    149e:	c8 01       	movw	r24, r16
    14a0:	b7 01       	movw	r22, r14
    14a2:	0e 94 04 0a 	call	0x1408	; 0x1408 <debug_tx_number_sp>
    14a6:	1f 91       	pop	r17
    14a8:	0f 91       	pop	r16
    14aa:	ff 90       	pop	r15
    14ac:	ef 90       	pop	r14
    14ae:	08 95       	ret

000014b0 <debug_tx_parameter_cm>:
    14b0:	ef 92       	push	r14
    14b2:	ff 92       	push	r15
    14b4:	0f 93       	push	r16
    14b6:	1f 93       	push	r17
    14b8:	7a 01       	movw	r14, r20
    14ba:	8b 01       	movw	r16, r22
    14bc:	0e 94 6f 09 	call	0x12de	; 0x12de <debug_tx_text>
    14c0:	0e 94 67 09 	call	0x12ce	; 0x12ce <debug_tx_sp>
    14c4:	c8 01       	movw	r24, r16
    14c6:	b7 01       	movw	r22, r14
    14c8:	0e 94 09 0a 	call	0x1412	; 0x1412 <debug_tx_number_cm>
    14cc:	1f 91       	pop	r17
    14ce:	0f 91       	pop	r16
    14d0:	ff 90       	pop	r15
    14d2:	ef 90       	pop	r14
    14d4:	08 95       	ret

000014d6 <debug_tx_parameter_hex_nl>:
    14d6:	ef 92       	push	r14
    14d8:	ff 92       	push	r15
    14da:	0f 93       	push	r16
    14dc:	1f 93       	push	r17
    14de:	7a 01       	movw	r14, r20
    14e0:	8b 01       	movw	r16, r22
    14e2:	0e 94 6f 09 	call	0x12de	; 0x12de <debug_tx_text>
    14e6:	0e 94 67 09 	call	0x12ce	; 0x12ce <debug_tx_sp>
    14ea:	c8 01       	movw	r24, r16
    14ec:	b7 01       	movw	r22, r14
    14ee:	0e 94 10 0a 	call	0x1420	; 0x1420 <debug_tx_number_hex_nl>
    14f2:	1f 91       	pop	r17
    14f4:	0f 91       	pop	r16
    14f6:	ff 90       	pop	r15
    14f8:	ef 90       	pop	r14
    14fa:	08 95       	ret

000014fc <debug_tx_parameter_hex_sp>:
    14fc:	ef 92       	push	r14
    14fe:	ff 92       	push	r15
    1500:	0f 93       	push	r16
    1502:	1f 93       	push	r17
    1504:	7a 01       	movw	r14, r20
    1506:	8b 01       	movw	r16, r22
    1508:	0e 94 6f 09 	call	0x12de	; 0x12de <debug_tx_text>
    150c:	0e 94 67 09 	call	0x12ce	; 0x12ce <debug_tx_sp>
    1510:	c8 01       	movw	r24, r16
    1512:	b7 01       	movw	r22, r14
    1514:	0e 94 15 0a 	call	0x142a	; 0x142a <debug_tx_number_hex_sp>
    1518:	1f 91       	pop	r17
    151a:	0f 91       	pop	r16
    151c:	ff 90       	pop	r15
    151e:	ef 90       	pop	r14
    1520:	08 95       	ret

00001522 <Debug_tx_parameter_hex_cm>:
    1522:	ef 92       	push	r14
    1524:	ff 92       	push	r15
    1526:	0f 93       	push	r16
    1528:	1f 93       	push	r17
    152a:	7a 01       	movw	r14, r20
    152c:	8b 01       	movw	r16, r22
    152e:	0e 94 6f 09 	call	0x12de	; 0x12de <debug_tx_text>
    1532:	0e 94 67 09 	call	0x12ce	; 0x12ce <debug_tx_sp>
    1536:	c8 01       	movw	r24, r16
    1538:	b7 01       	movw	r22, r14
    153a:	0e 94 1a 0a 	call	0x1434	; 0x1434 <debug_tx_number_hex_cm>
    153e:	1f 91       	pop	r17
    1540:	0f 91       	pop	r16
    1542:	ff 90       	pop	r15
    1544:	ef 90       	pop	r14
    1546:	08 95       	ret

00001548 <debug_tx_parameter_bin_nl>:
    1548:	ef 92       	push	r14
    154a:	ff 92       	push	r15
    154c:	0f 93       	push	r16
    154e:	1f 93       	push	r17
    1550:	7a 01       	movw	r14, r20
    1552:	8b 01       	movw	r16, r22
    1554:	0e 94 6f 09 	call	0x12de	; 0x12de <debug_tx_text>
    1558:	0e 94 67 09 	call	0x12ce	; 0x12ce <debug_tx_sp>
    155c:	c8 01       	movw	r24, r16
    155e:	b7 01       	movw	r22, r14
    1560:	0e 94 21 0a 	call	0x1442	; 0x1442 <debug_tx_number_bin_nl>
    1564:	1f 91       	pop	r17
    1566:	0f 91       	pop	r16
    1568:	ff 90       	pop	r15
    156a:	ef 90       	pop	r14
    156c:	08 95       	ret

0000156e <debug_tx_parameter_bin_sp>:
    156e:	ef 92       	push	r14
    1570:	ff 92       	push	r15
    1572:	0f 93       	push	r16
    1574:	1f 93       	push	r17
    1576:	7a 01       	movw	r14, r20
    1578:	8b 01       	movw	r16, r22
    157a:	0e 94 6f 09 	call	0x12de	; 0x12de <debug_tx_text>
    157e:	0e 94 67 09 	call	0x12ce	; 0x12ce <debug_tx_sp>
    1582:	c8 01       	movw	r24, r16
    1584:	b7 01       	movw	r22, r14
    1586:	0e 94 26 0a 	call	0x144c	; 0x144c <debug_tx_number_bin_sp>
    158a:	1f 91       	pop	r17
    158c:	0f 91       	pop	r16
    158e:	ff 90       	pop	r15
    1590:	ef 90       	pop	r14
    1592:	08 95       	ret

00001594 <Debug_tx_parameter_bin_cm>:
    1594:	ef 92       	push	r14
    1596:	ff 92       	push	r15
    1598:	0f 93       	push	r16
    159a:	1f 93       	push	r17
    159c:	7a 01       	movw	r14, r20
    159e:	8b 01       	movw	r16, r22
    15a0:	0e 94 6f 09 	call	0x12de	; 0x12de <debug_tx_text>
    15a4:	0e 94 67 09 	call	0x12ce	; 0x12ce <debug_tx_sp>
    15a8:	c8 01       	movw	r24, r16
    15aa:	b7 01       	movw	r22, r14
    15ac:	0e 94 2b 0a 	call	0x1456	; 0x1456 <debug_tx_number_bin_cm>
    15b0:	1f 91       	pop	r17
    15b2:	0f 91       	pop	r16
    15b4:	ff 90       	pop	r15
    15b6:	ef 90       	pop	r14
    15b8:	08 95       	ret

000015ba <debug_buf_get>:
    15ba:	ec ed       	ldi	r30, 0xDC	; 220
    15bc:	f1 e0       	ldi	r31, 0x01	; 1
    15be:	e8 0f       	add	r30, r24
    15c0:	f1 1d       	adc	r31, r1
    15c2:	83 81       	ldd	r24, Z+3	; 0x03
    15c4:	08 95       	ret

000015c6 <debug_buf_index_get>:
    15c6:	80 91 ff 01 	lds	r24, 0x01FF
    15ca:	08 95       	ret

000015cc <debug_flush_buf>:
    15cc:	80 e0       	ldi	r24, 0x00	; 0
    15ce:	90 e0       	ldi	r25, 0x00	; 0
    15d0:	fc 01       	movw	r30, r24
    15d2:	e4 52       	subi	r30, 0x24	; 36
    15d4:	fe 4f       	sbci	r31, 0xFE	; 254
    15d6:	13 82       	std	Z+3, r1	; 0x03
    15d8:	01 96       	adiw	r24, 0x01	; 1
    15da:	80 32       	cpi	r24, 0x20	; 32
    15dc:	91 05       	cpc	r25, r1
    15de:	c1 f7       	brne	.-16     	; 0x15d0 <debug_flush_buf+0x4>
    15e0:	10 92 ff 01 	sts	0x01FF, r1
    15e4:	08 95       	ret

000015e6 <debug_databsy_get>:
    15e6:	80 91 de 01 	lds	r24, 0x01DE
    15ea:	08 95       	ret

000015ec <debug_data_available_rx_buf>:
    15ec:	80 91 de 01 	lds	r24, 0x01DE
    15f0:	88 23       	and	r24, r24
    15f2:	11 f0       	breq	.+4      	; 0x15f8 <debug_data_available_rx_buf+0xc>
    15f4:	90 e0       	ldi	r25, 0x00	; 0
    15f6:	08 c0       	rjmp	.+16     	; 0x1608 <debug_data_available_rx_buf+0x1c>
    15f8:	80 91 ff 01 	lds	r24, 0x01FF
    15fc:	90 e0       	ldi	r25, 0x00	; 0
    15fe:	88 23       	and	r24, r24
    1600:	09 f4       	brne	.+2      	; 0x1604 <debug_data_available_rx_buf+0x18>
    1602:	91 e0       	ldi	r25, 0x01	; 1
    1604:	81 e0       	ldi	r24, 0x01	; 1
    1606:	98 27       	eor	r25, r24
    1608:	89 2f       	mov	r24, r25
    160a:	08 95       	ret

0000160c <debug_available_bytes_rx_buf>:
    160c:	80 91 ff 01 	lds	r24, 0x01FF
    1610:	08 95       	ret

00001612 <debug_init>:
    1612:	0e 94 a6 07 	call	0xf4c	; 0xf4c <debug_struct_init>
    1616:	0e 94 c2 07 	call	0xf84	; 0xf84 <debug_timings_init>
    161a:	0e 94 e7 07 	call	0xfce	; 0xfce <debug_gpio_init>
    161e:	08 95       	ret

00001620 <__vector_4>:
    1620:	1f 92       	push	r1
    1622:	0f 92       	push	r0
    1624:	0f b6       	in	r0, 0x3f	; 63
    1626:	0f 92       	push	r0
    1628:	11 24       	eor	r1, r1
    162a:	2f 93       	push	r18
    162c:	3f 93       	push	r19
    162e:	4f 93       	push	r20
    1630:	5f 93       	push	r21
    1632:	6f 93       	push	r22
    1634:	7f 93       	push	r23
    1636:	8f 93       	push	r24
    1638:	9f 93       	push	r25
    163a:	af 93       	push	r26
    163c:	bf 93       	push	r27
    163e:	ef 93       	push	r30
    1640:	ff 93       	push	r31
    1642:	81 e0       	ldi	r24, 0x01	; 1
    1644:	80 93 de 01 	sts	0x01DE, r24
    1648:	0e 94 7b 08 	call	0x10f6	; 0x10f6 <debug_rx_byte>
    164c:	98 2f       	mov	r25, r24
    164e:	80 91 dc 01 	lds	r24, 0x01DC
    1652:	88 23       	and	r24, r24
    1654:	99 f4       	brne	.+38     	; 0x167c <__vector_4+0x5c>
    1656:	e0 91 ff 01 	lds	r30, 0x01FF
    165a:	f0 e0       	ldi	r31, 0x00	; 0
    165c:	e4 52       	subi	r30, 0x24	; 36
    165e:	fe 4f       	sbci	r31, 0xFE	; 254
    1660:	93 83       	std	Z+3, r25	; 0x03
    1662:	80 91 ff 01 	lds	r24, 0x01FF
    1666:	8f 5f       	subi	r24, 0xFF	; 255
    1668:	80 93 ff 01 	sts	0x01FF, r24
    166c:	80 91 ff 01 	lds	r24, 0x01FF
    1670:	81 32       	cpi	r24, 0x21	; 33
    1672:	10 f0       	brcs	.+4      	; 0x1678 <__vector_4+0x58>
    1674:	10 92 ff 01 	sts	0x01FF, r1
    1678:	0e 94 d5 07 	call	0xfaa	; 0xfaa <debug_timer_start>
    167c:	ff 91       	pop	r31
    167e:	ef 91       	pop	r30
    1680:	bf 91       	pop	r27
    1682:	af 91       	pop	r26
    1684:	9f 91       	pop	r25
    1686:	8f 91       	pop	r24
    1688:	7f 91       	pop	r23
    168a:	6f 91       	pop	r22
    168c:	5f 91       	pop	r21
    168e:	4f 91       	pop	r20
    1690:	3f 91       	pop	r19
    1692:	2f 91       	pop	r18
    1694:	0f 90       	pop	r0
    1696:	0f be       	out	0x3f, r0	; 63
    1698:	0f 90       	pop	r0
    169a:	1f 90       	pop	r1
    169c:	18 95       	reti

0000169e <__vector_16>:
    169e:	1f 92       	push	r1
    16a0:	0f 92       	push	r0
    16a2:	0f b6       	in	r0, 0x3f	; 63
    16a4:	0f 92       	push	r0
    16a6:	11 24       	eor	r1, r1
    16a8:	10 92 6e 00 	sts	0x006E, r1
    16ac:	15 bc       	out	0x25, r1	; 37
    16ae:	16 bc       	out	0x26, r1	; 38
    16b0:	10 92 de 01 	sts	0x01DE, r1
    16b4:	0f 90       	pop	r0
    16b6:	0f be       	out	0x3f, r0	; 63
    16b8:	0f 90       	pop	r0
    16ba:	1f 90       	pop	r1
    16bc:	18 95       	reti

000016be <__udivmodqi4>:
    16be:	99 1b       	sub	r25, r25
    16c0:	79 e0       	ldi	r23, 0x09	; 9
    16c2:	04 c0       	rjmp	.+8      	; 0x16cc <__udivmodqi4_ep>

000016c4 <__udivmodqi4_loop>:
    16c4:	99 1f       	adc	r25, r25
    16c6:	96 17       	cp	r25, r22
    16c8:	08 f0       	brcs	.+2      	; 0x16cc <__udivmodqi4_ep>
    16ca:	96 1b       	sub	r25, r22

000016cc <__udivmodqi4_ep>:
    16cc:	88 1f       	adc	r24, r24
    16ce:	7a 95       	dec	r23
    16d0:	c9 f7       	brne	.-14     	; 0x16c4 <__udivmodqi4_loop>
    16d2:	80 95       	com	r24
    16d4:	08 95       	ret

000016d6 <__udivmodsi4>:
    16d6:	a1 e2       	ldi	r26, 0x21	; 33
    16d8:	1a 2e       	mov	r1, r26
    16da:	aa 1b       	sub	r26, r26
    16dc:	bb 1b       	sub	r27, r27
    16de:	fd 01       	movw	r30, r26
    16e0:	0d c0       	rjmp	.+26     	; 0x16fc <__udivmodsi4_ep>

000016e2 <__udivmodsi4_loop>:
    16e2:	aa 1f       	adc	r26, r26
    16e4:	bb 1f       	adc	r27, r27
    16e6:	ee 1f       	adc	r30, r30
    16e8:	ff 1f       	adc	r31, r31
    16ea:	a2 17       	cp	r26, r18
    16ec:	b3 07       	cpc	r27, r19
    16ee:	e4 07       	cpc	r30, r20
    16f0:	f5 07       	cpc	r31, r21
    16f2:	20 f0       	brcs	.+8      	; 0x16fc <__udivmodsi4_ep>
    16f4:	a2 1b       	sub	r26, r18
    16f6:	b3 0b       	sbc	r27, r19
    16f8:	e4 0b       	sbc	r30, r20
    16fa:	f5 0b       	sbc	r31, r21

000016fc <__udivmodsi4_ep>:
    16fc:	66 1f       	adc	r22, r22
    16fe:	77 1f       	adc	r23, r23
    1700:	88 1f       	adc	r24, r24
    1702:	99 1f       	adc	r25, r25
    1704:	1a 94       	dec	r1
    1706:	69 f7       	brne	.-38     	; 0x16e2 <__udivmodsi4_loop>
    1708:	60 95       	com	r22
    170a:	70 95       	com	r23
    170c:	80 95       	com	r24
    170e:	90 95       	com	r25
    1710:	9b 01       	movw	r18, r22
    1712:	ac 01       	movw	r20, r24
    1714:	bd 01       	movw	r22, r26
    1716:	cf 01       	movw	r24, r30
    1718:	08 95       	ret

0000171a <_exit>:
    171a:	f8 94       	cli

0000171c <__stop_program>:
    171c:	ff cf       	rjmp	.-2      	; 0x171c <__stop_program>
